
code.elf:     file format elf32-avr


Disassembly of section .text:

00000000 <__vectors>:
       0:	0c 94 24 01 	jmp	0x248	; 0x248 <__ctors_end>
       4:	0c 94 41 01 	jmp	0x282	; 0x282 <__bad_interrupt>
       8:	0c 94 41 01 	jmp	0x282	; 0x282 <__bad_interrupt>
       c:	0c 94 41 01 	jmp	0x282	; 0x282 <__bad_interrupt>
      10:	0c 94 41 01 	jmp	0x282	; 0x282 <__bad_interrupt>
      14:	0c 94 41 01 	jmp	0x282	; 0x282 <__bad_interrupt>
      18:	0c 94 41 01 	jmp	0x282	; 0x282 <__bad_interrupt>
      1c:	0c 94 41 01 	jmp	0x282	; 0x282 <__bad_interrupt>
      20:	0c 94 41 01 	jmp	0x282	; 0x282 <__bad_interrupt>
      24:	0c 94 41 01 	jmp	0x282	; 0x282 <__bad_interrupt>
      28:	0c 94 41 01 	jmp	0x282	; 0x282 <__bad_interrupt>
      2c:	0c 94 41 01 	jmp	0x282	; 0x282 <__bad_interrupt>
      30:	0c 94 41 01 	jmp	0x282	; 0x282 <__bad_interrupt>
      34:	0c 94 41 01 	jmp	0x282	; 0x282 <__bad_interrupt>
      38:	0c 94 41 01 	jmp	0x282	; 0x282 <__bad_interrupt>
      3c:	0c 94 41 01 	jmp	0x282	; 0x282 <__bad_interrupt>
      40:	0c 94 41 01 	jmp	0x282	; 0x282 <__bad_interrupt>
      44:	0c 94 41 01 	jmp	0x282	; 0x282 <__bad_interrupt>
      48:	0c 94 41 01 	jmp	0x282	; 0x282 <__bad_interrupt>
      4c:	0c 94 41 01 	jmp	0x282	; 0x282 <__bad_interrupt>
      50:	0c 94 41 01 	jmp	0x282	; 0x282 <__bad_interrupt>
      54:	0c 94 41 01 	jmp	0x282	; 0x282 <__bad_interrupt>
      58:	0c 94 41 01 	jmp	0x282	; 0x282 <__bad_interrupt>
      5c:	0c 94 41 01 	jmp	0x282	; 0x282 <__bad_interrupt>
      60:	0c 94 41 01 	jmp	0x282	; 0x282 <__bad_interrupt>
      64:	0c 94 41 01 	jmp	0x282	; 0x282 <__bad_interrupt>

00000068 <CHARSET>:
      68:	00 00 00 00 00 00 00 5f 00 00 00 07 00 07 00 14     ......._........
      78:	7f 14 7f 14 24 2a 7f 2a 12 23 13 08 64 62 36 49     ....$*.*.#..db6I
      88:	55 22 50 00 05 03 00 00 00 1c 22 41 00 00 41 22     U"P......."A..A"
      98:	1c 00 14 08 3e 08 14 08 08 3e 08 08 00 50 30 00     ....>....>...P0.
      a8:	00 08 08 08 08 08 00 60 60 00 00 20 10 08 04 02     .......``.. ....
      b8:	3e 51 49 45 3e 00 42 7f 40 00 42 61 51 49 46 21     >QIE>.B.@.BaQIF!
      c8:	41 45 4b 31 18 14 12 7f 10 27 45 45 45 39 3c 4a     AEK1.....'EEE9<J
      d8:	49 49 30 01 71 09 05 03 36 49 49 49 36 06 49 49     II0.q...6III6.II
      e8:	29 1e 00 36 36 00 00 00 56 36 00 00 08 14 22 41     )..66...V6...."A
      f8:	00 14 14 14 14 14 00 41 22 14 08 02 01 51 09 06     .......A"....Q..
     108:	32 49 79 41 3e 7e 11 11 11 7e 7f 49 49 49 36 3e     2IyA>~...~.III6>
     118:	41 41 41 22 7f 41 41 22 1c 7f 49 49 49 41 7f 09     AAA".AA"..IIIA..
     128:	09 09 01 3e 41 49 49 7a 7f 08 08 08 7f 00 41 7f     ...>AIIz......A.
     138:	41 00 20 40 41 3f 01 7f 08 14 22 41 7f 40 40 40     A. @A?...."A.@@@
     148:	40 7f 02 0c 02 7f 7f 04 08 10 7f 3e 41 41 41 3e     @..........>AAA>
     158:	7f 09 09 09 06 3e 41 51 21 5e 7f 09 19 29 46 46     .....>AQ!^...)FF
     168:	49 49 49 31 01 01 7f 01 01 3f 40 40 40 3f 1f 20     III1.....?@@@?. 
     178:	40 20 1f 3f 40 38 40 3f 63 14 08 14 63 07 08 70     @ .?@8@?c...c..p
     188:	08 07 61 51 49 45 43 00 7f 41 41 00 02 04 08 10     ..aQIEC..AA.....
     198:	20 00 41 41 7f 00 04 02 01 02 04 40 40 40 40 40      .AA.......@@@@@
     1a8:	00 01 02 04 00 20 54 54 54 78 7f 48 44 44 38 38     ..... TTTx.HDD88
     1b8:	44 44 44 20 38 44 44 48 7f 38 54 54 54 18 08 7e     DDD 8DDH.8TTT..~
     1c8:	09 01 02 0c 52 52 52 3e 7f 08 04 04 78 00 44 7d     ....RRR>....x.D}
     1d8:	40 00 20 40 44 3d 00 7f 10 28 44 00 00 41 7f 40     @. @D=...(D..A.@
     1e8:	00 7c 04 18 04 78 7c 08 04 04 78 38 44 44 44 38     .|...x|...x8DDD8
     1f8:	7c 14 14 14 08 08 14 14 18 7c 7c 08 04 04 08 48     |........||....H
     208:	54 54 54 20 04 3f 44 40 20 3c 40 40 20 7c 1c 20     TTT .?D@ <@@ |. 
     218:	40 20 1c 3c 40 30 40 3c 44 28 10 28 44 0c 50 50     @ .<@0@<D(.(D.PP
     228:	50 3c 44 64 54 4c 44 00 08 36 41 00 00 00 7f 00     P<DdTLD..6A.....
     238:	00 00 41 36 08 00 10 08 08 10 08 00 00 00 00 00     ..A6............

00000248 <__ctors_end>:
     248:	11 24       	eor	r1, r1
     24a:	1f be       	out	0x3f, r1	; 63
     24c:	cf ef       	ldi	r28, 0xFF	; 255
     24e:	d8 e0       	ldi	r29, 0x08	; 8
     250:	de bf       	out	0x3e, r29	; 62
     252:	cd bf       	out	0x3d, r28	; 61

00000254 <__do_copy_data>:
     254:	11 e0       	ldi	r17, 0x01	; 1
     256:	a0 e0       	ldi	r26, 0x00	; 0
     258:	b1 e0       	ldi	r27, 0x01	; 1
     25a:	ec e7       	ldi	r30, 0x7C	; 124
     25c:	f7 e1       	ldi	r31, 0x17	; 23
     25e:	02 c0       	rjmp	.+4      	; 0x264 <__do_copy_data+0x10>
     260:	05 90       	lpm	r0, Z+
     262:	0d 92       	st	X+, r0
     264:	a2 36       	cpi	r26, 0x62	; 98
     266:	b1 07       	cpc	r27, r17
     268:	d9 f7       	brne	.-10     	; 0x260 <__do_copy_data+0xc>

0000026a <__do_clear_bss>:
     26a:	23 e0       	ldi	r18, 0x03	; 3
     26c:	a2 e6       	ldi	r26, 0x62	; 98
     26e:	b1 e0       	ldi	r27, 0x01	; 1
     270:	01 c0       	rjmp	.+2      	; 0x274 <.do_clear_bss_start>

00000272 <.do_clear_bss_loop>:
     272:	1d 92       	st	X+, r1

00000274 <.do_clear_bss_start>:
     274:	a0 3a       	cpi	r26, 0xA0	; 160
     276:	b2 07       	cpc	r27, r18
     278:	e1 f7       	brne	.-8      	; 0x272 <.do_clear_bss_loop>
     27a:	0e 94 6e 07 	call	0xedc	; 0xedc <main>
     27e:	0c 94 bc 0b 	jmp	0x1778	; 0x1778 <_exit>

00000282 <__bad_interrupt>:
     282:	0c 94 00 00 	jmp	0	; 0x0 <__vectors>

00000286 <senha_diferente>:
     286:	e0 e0       	ldi	r30, 0x00	; 0
     288:	f1 e0       	ldi	r31, 0x01	; 1
     28a:	a5 e0       	ldi	r26, 0x05	; 5
     28c:	b1 e0       	ldi	r27, 0x01	; 1
     28e:	90 e0       	ldi	r25, 0x00	; 0
     290:	80 e0       	ldi	r24, 0x00	; 0
     292:	31 91       	ld	r19, Z+
     294:	2d 91       	ld	r18, X+
     296:	32 13       	cpse	r19, r18
     298:	01 96       	adiw	r24, 0x01	; 1
     29a:	21 e0       	ldi	r18, 0x01	; 1
     29c:	e5 30       	cpi	r30, 0x05	; 5
     29e:	f2 07       	cpc	r31, r18
     2a0:	c1 f7       	brne	.-16     	; 0x292 <senha_diferente+0xc>
     2a2:	08 95       	ret

000002a4 <joystick_control>:
     2a4:	ef 92       	push	r14
     2a6:	ff 92       	push	r15
     2a8:	1f 93       	push	r17
     2aa:	cf 93       	push	r28
     2ac:	df 93       	push	r29
     2ae:	cd b7       	in	r28, 0x3d	; 61
     2b0:	de b7       	in	r29, 0x3e	; 62
     2b2:	2a 97       	sbiw	r28, 0x0a	; 10
     2b4:	0f b6       	in	r0, 0x3f	; 63
     2b6:	f8 94       	cli
     2b8:	de bf       	out	0x3e, r29	; 62
     2ba:	0f be       	out	0x3f, r0	; 63
     2bc:	cd bf       	out	0x3d, r28	; 61
     2be:	69 83       	std	Y+1, r22	; 0x01
     2c0:	7a 83       	std	Y+2, r23	; 0x02
     2c2:	8b 83       	std	Y+3, r24	; 0x03
     2c4:	9c 83       	std	Y+4, r25	; 0x04
     2c6:	2d 83       	std	Y+5, r18	; 0x05
     2c8:	3e 83       	std	Y+6, r19	; 0x06
     2ca:	4f 83       	std	Y+7, r20	; 0x07
     2cc:	58 87       	std	Y+8, r21	; 0x08
     2ce:	d7 01       	movw	r26, r14
     2d0:	0d 90       	ld	r0, X+
     2d2:	bc 91       	ld	r27, X
     2d4:	a0 2d       	mov	r26, r0
     2d6:	ba 87       	std	Y+10, r27	; 0x0a
     2d8:	a9 87       	std	Y+9, r26	; 0x09
     2da:	26 e6       	ldi	r18, 0x66	; 102
     2dc:	36 e6       	ldi	r19, 0x66	; 102
     2de:	46 e6       	ldi	r20, 0x66	; 102
     2e0:	5f e3       	ldi	r21, 0x3F	; 63
     2e2:	6d 81       	ldd	r22, Y+5	; 0x05
     2e4:	7e 81       	ldd	r23, Y+6	; 0x06
     2e6:	8f 81       	ldd	r24, Y+7	; 0x07
     2e8:	98 85       	ldd	r25, Y+8	; 0x08
     2ea:	0e 94 70 0a 	call	0x14e0	; 0x14e0 <__gesf2>
     2ee:	18 16       	cp	r1, r24
     2f0:	ec f4       	brge	.+58     	; 0x32c <joystick_control+0x88>
     2f2:	89 85       	ldd	r24, Y+9	; 0x09
     2f4:	9a 85       	ldd	r25, Y+10	; 0x0a
     2f6:	01 96       	adiw	r24, 0x01	; 1
     2f8:	f7 01       	movw	r30, r14
     2fa:	91 83       	std	Z+1, r25	; 0x01
     2fc:	80 83       	st	Z, r24
     2fe:	81 e0       	ldi	r24, 0x01	; 1
     300:	90 e0       	ldi	r25, 0x00	; 0
     302:	f7 01       	movw	r30, r14
     304:	20 81       	ld	r18, Z
     306:	31 81       	ldd	r19, Z+1	; 0x01
     308:	24 30       	cpi	r18, 0x04	; 4
     30a:	31 05       	cpc	r19, r1
     30c:	0c f4       	brge	.+2      	; 0x310 <joystick_control+0x6c>
     30e:	92 c0       	rjmp	.+292    	; 0x434 <__LOCK_REGION_LENGTH__+0x34>
     310:	11 82       	std	Z+1, r1	; 0x01
     312:	10 82       	st	Z, r1
     314:	2a 96       	adiw	r28, 0x0a	; 10
     316:	0f b6       	in	r0, 0x3f	; 63
     318:	f8 94       	cli
     31a:	de bf       	out	0x3e, r29	; 62
     31c:	0f be       	out	0x3f, r0	; 63
     31e:	cd bf       	out	0x3d, r28	; 61
     320:	df 91       	pop	r29
     322:	cf 91       	pop	r28
     324:	1f 91       	pop	r17
     326:	ff 90       	pop	r15
     328:	ef 90       	pop	r14
     32a:	08 95       	ret
     32c:	2d ec       	ldi	r18, 0xCD	; 205
     32e:	3c ec       	ldi	r19, 0xCC	; 204
     330:	4c ec       	ldi	r20, 0xCC	; 204
     332:	5d e3       	ldi	r21, 0x3D	; 61
     334:	6d 81       	ldd	r22, Y+5	; 0x05
     336:	7e 81       	ldd	r23, Y+6	; 0x06
     338:	8f 81       	ldd	r24, Y+7	; 0x07
     33a:	98 85       	ldd	r25, Y+8	; 0x08
     33c:	0e 94 18 09 	call	0x1230	; 0x1230 <__cmpsf2>
     340:	87 fd       	sbrc	r24, 7
     342:	6c c0       	rjmp	.+216    	; 0x41c <__LOCK_REGION_LENGTH__+0x1c>
     344:	2d ec       	ldi	r18, 0xCD	; 205
     346:	3c ec       	ldi	r19, 0xCC	; 204
     348:	4c ec       	ldi	r20, 0xCC	; 204
     34a:	5d e3       	ldi	r21, 0x3D	; 61
     34c:	69 81       	ldd	r22, Y+1	; 0x01
     34e:	7a 81       	ldd	r23, Y+2	; 0x02
     350:	8b 81       	ldd	r24, Y+3	; 0x03
     352:	9c 81       	ldd	r25, Y+4	; 0x04
     354:	0e 94 18 09 	call	0x1230	; 0x1230 <__cmpsf2>
     358:	87 fd       	sbrc	r24, 7
     35a:	38 c0       	rjmp	.+112    	; 0x3cc <joystick_control+0x128>
     35c:	26 e6       	ldi	r18, 0x66	; 102
     35e:	36 e6       	ldi	r19, 0x66	; 102
     360:	46 e6       	ldi	r20, 0x66	; 102
     362:	5f e3       	ldi	r21, 0x3F	; 63
     364:	69 81       	ldd	r22, Y+1	; 0x01
     366:	7a 81       	ldd	r23, Y+2	; 0x02
     368:	8b 81       	ldd	r24, Y+3	; 0x03
     36a:	9c 81       	ldd	r25, Y+4	; 0x04
     36c:	0e 94 70 0a 	call	0x14e0	; 0x14e0 <__gesf2>
     370:	18 16       	cp	r1, r24
     372:	0c f0       	brlt	.+2      	; 0x376 <joystick_control+0xd2>
     374:	5c c0       	rjmp	.+184    	; 0x42e <__LOCK_REGION_LENGTH__+0x2e>
     376:	a9 85       	ldd	r26, Y+9	; 0x09
     378:	ba 85       	ldd	r27, Y+10	; 0x0a
     37a:	a0 50       	subi	r26, 0x00	; 0
     37c:	bf 4f       	sbci	r27, 0xFF	; 255
     37e:	1c 91       	ld	r17, X
     380:	e1 2f       	mov	r30, r17
     382:	01 2e       	mov	r0, r17
     384:	00 0c       	add	r0, r0
     386:	ff 0b       	sbc	r31, r31
     388:	fe 83       	std	Y+6, r31	; 0x06
     38a:	ed 83       	std	Y+5, r30	; 0x05
     38c:	8e e0       	ldi	r24, 0x0E	; 14
     38e:	91 e0       	ldi	r25, 0x01	; 1
     390:	0e 94 d9 06 	call	0xdb2	; 0xdb2 <print>
     394:	81 2f       	mov	r24, r17
     396:	11 0f       	add	r17, r17
     398:	99 0b       	sbc	r25, r25
     39a:	aa 0b       	sbc	r26, r26
     39c:	bb 0b       	sbc	r27, r27
     39e:	89 83       	std	Y+1, r24	; 0x01
     3a0:	9a 83       	std	Y+2, r25	; 0x02
     3a2:	ab 83       	std	Y+3, r26	; 0x03
     3a4:	bc 83       	std	Y+4, r27	; 0x04
     3a6:	bc 01       	movw	r22, r24
     3a8:	cd 01       	movw	r24, r26
     3aa:	0e 94 cf 05 	call	0xb9e	; 0xb9e <printint>
     3ae:	ad 81       	ldd	r26, Y+5	; 0x05
     3b0:	be 81       	ldd	r27, Y+6	; 0x06
     3b2:	11 97       	sbiw	r26, 0x01	; 1
     3b4:	ba 83       	std	Y+2, r27	; 0x02
     3b6:	a9 83       	std	Y+1, r26	; 0x01
     3b8:	d0 97       	sbiw	r26, 0x30	; 48
     3ba:	a4 f1       	brlt	.+104    	; 0x424 <__LOCK_REGION_LENGTH__+0x24>
     3bc:	d7 01       	movw	r26, r14
     3be:	ed 91       	ld	r30, X+
     3c0:	fc 91       	ld	r31, X
     3c2:	e0 50       	subi	r30, 0x00	; 0
     3c4:	ff 4f       	sbci	r31, 0xFF	; 255
     3c6:	b9 81       	ldd	r27, Y+1	; 0x01
     3c8:	b0 83       	st	Z, r27
     3ca:	99 cf       	rjmp	.-206    	; 0x2fe <joystick_control+0x5a>
     3cc:	e9 85       	ldd	r30, Y+9	; 0x09
     3ce:	fa 85       	ldd	r31, Y+10	; 0x0a
     3d0:	e0 50       	subi	r30, 0x00	; 0
     3d2:	ff 4f       	sbci	r31, 0xFF	; 255
     3d4:	10 81       	ld	r17, Z
     3d6:	81 2f       	mov	r24, r17
     3d8:	01 2e       	mov	r0, r17
     3da:	00 0c       	add	r0, r0
     3dc:	99 0b       	sbc	r25, r25
     3de:	9e 83       	std	Y+6, r25	; 0x06
     3e0:	8d 83       	std	Y+5, r24	; 0x05
     3e2:	85 e1       	ldi	r24, 0x15	; 21
     3e4:	91 e0       	ldi	r25, 0x01	; 1
     3e6:	0e 94 d9 06 	call	0xdb2	; 0xdb2 <print>
     3ea:	81 2f       	mov	r24, r17
     3ec:	11 0f       	add	r17, r17
     3ee:	99 0b       	sbc	r25, r25
     3f0:	aa 0b       	sbc	r26, r26
     3f2:	bb 0b       	sbc	r27, r27
     3f4:	89 83       	std	Y+1, r24	; 0x01
     3f6:	9a 83       	std	Y+2, r25	; 0x02
     3f8:	ab 83       	std	Y+3, r26	; 0x03
     3fa:	bc 83       	std	Y+4, r27	; 0x04
     3fc:	bc 01       	movw	r22, r24
     3fe:	cd 01       	movw	r24, r26
     400:	0e 94 cf 05 	call	0xb9e	; 0xb9e <printint>
     404:	ad 81       	ldd	r26, Y+5	; 0x05
     406:	be 81       	ldd	r27, Y+6	; 0x06
     408:	11 96       	adiw	r26, 0x01	; 1
     40a:	ba 83       	std	Y+2, r27	; 0x02
     40c:	a9 83       	std	Y+1, r26	; 0x01
     40e:	da 97       	sbiw	r26, 0x3a	; 58
     410:	ac f2       	brlt	.-86     	; 0x3bc <joystick_control+0x118>
     412:	a0 e3       	ldi	r26, 0x30	; 48
     414:	b0 e0       	ldi	r27, 0x00	; 0
     416:	ba 83       	std	Y+2, r27	; 0x02
     418:	a9 83       	std	Y+1, r26	; 0x01
     41a:	d0 cf       	rjmp	.-96     	; 0x3bc <joystick_control+0x118>
     41c:	89 85       	ldd	r24, Y+9	; 0x09
     41e:	9a 85       	ldd	r25, Y+10	; 0x0a
     420:	01 97       	sbiw	r24, 0x01	; 1
     422:	6a cf       	rjmp	.-300    	; 0x2f8 <joystick_control+0x54>
     424:	e9 e3       	ldi	r30, 0x39	; 57
     426:	f0 e0       	ldi	r31, 0x00	; 0
     428:	fa 83       	std	Y+2, r31	; 0x02
     42a:	e9 83       	std	Y+1, r30	; 0x01
     42c:	c7 cf       	rjmp	.-114    	; 0x3bc <joystick_control+0x118>
     42e:	90 e0       	ldi	r25, 0x00	; 0
     430:	80 e0       	ldi	r24, 0x00	; 0
     432:	67 cf       	rjmp	.-306    	; 0x302 <joystick_control+0x5e>
     434:	37 ff       	sbrs	r19, 7
     436:	6e cf       	rjmp	.-292    	; 0x314 <joystick_control+0x70>
     438:	23 e0       	ldi	r18, 0x03	; 3
     43a:	30 e0       	ldi	r19, 0x00	; 0
     43c:	31 83       	std	Z+1, r19	; 0x01
     43e:	20 83       	st	Z, r18
     440:	69 cf       	rjmp	.-302    	; 0x314 <joystick_control+0x70>

00000442 <def_senha>:
     442:	0f 93       	push	r16
     444:	1f 93       	push	r17
     446:	cf 93       	push	r28
     448:	df 93       	push	r29
     44a:	d0 e0       	ldi	r29, 0x00	; 0
     44c:	c0 e0       	ldi	r28, 0x00	; 0
     44e:	0a e0       	ldi	r16, 0x0A	; 10
     450:	10 e0       	ldi	r17, 0x00	; 0
     452:	0e 94 4a 0b 	call	0x1694	; 0x1694 <rand>
     456:	b8 01       	movw	r22, r16
     458:	0e 94 42 08 	call	0x1084	; 0x1084 <__divmodhi4>
     45c:	c0 96       	adiw	r24, 0x30	; 48
     45e:	e5 e0       	ldi	r30, 0x05	; 5
     460:	f1 e0       	ldi	r31, 0x01	; 1
     462:	30 e0       	ldi	r19, 0x00	; 0
     464:	20 e0       	ldi	r18, 0x00	; 0
     466:	41 91       	ld	r20, Z+
     468:	04 2e       	mov	r0, r20
     46a:	00 0c       	add	r0, r0
     46c:	55 0b       	sbc	r21, r21
     46e:	48 17       	cp	r20, r24
     470:	59 07       	cpc	r21, r25
     472:	11 f4       	brne	.+4      	; 0x478 <def_senha+0x36>
     474:	2f 5f       	subi	r18, 0xFF	; 255
     476:	3f 4f       	sbci	r19, 0xFF	; 255
     478:	41 e0       	ldi	r20, 0x01	; 1
     47a:	e9 30       	cpi	r30, 0x09	; 9
     47c:	f4 07       	cpc	r31, r20
     47e:	99 f7       	brne	.-26     	; 0x466 <def_senha+0x24>
     480:	23 2b       	or	r18, r19
     482:	61 f0       	breq	.+24     	; 0x49c <def_senha+0x5a>
     484:	21 97       	sbiw	r28, 0x01	; 1
     486:	21 96       	adiw	r28, 0x01	; 1
     488:	c4 30       	cpi	r28, 0x04	; 4
     48a:	d1 05       	cpc	r29, r1
     48c:	11 f7       	brne	.-60     	; 0x452 <def_senha+0x10>
     48e:	10 92 09 01 	sts	0x0109, r1	; 0x800109 <senha+0x4>
     492:	df 91       	pop	r29
     494:	cf 91       	pop	r28
     496:	1f 91       	pop	r17
     498:	0f 91       	pop	r16
     49a:	08 95       	ret
     49c:	fe 01       	movw	r30, r28
     49e:	eb 5f       	subi	r30, 0xFB	; 251
     4a0:	fe 4f       	sbci	r31, 0xFE	; 254
     4a2:	80 83       	st	Z, r24
     4a4:	f0 cf       	rjmp	.-32     	; 0x486 <def_senha+0x44>

000004a6 <draw_line>:
     4a6:	82 30       	cpi	r24, 0x02	; 2
     4a8:	e9 f0       	breq	.+58     	; 0x4e4 <draw_line+0x3e>
     4aa:	70 f4       	brcc	.+28     	; 0x4c8 <draw_line+0x22>
     4ac:	81 11       	cpse	r24, r1
     4ae:	0f c0       	rjmp	.+30     	; 0x4ce <draw_line+0x28>
     4b0:	21 e1       	ldi	r18, 0x11	; 17
     4b2:	4a e0       	ldi	r20, 0x0A	; 10
     4b4:	61 e1       	ldi	r22, 0x11	; 17
     4b6:	80 e0       	ldi	r24, 0x00	; 0
     4b8:	0e 94 ee 03 	call	0x7dc	; 0x7dc <nokia_lcd_drawline>
     4bc:	20 e0       	ldi	r18, 0x00	; 0
     4be:	4a e0       	ldi	r20, 0x0A	; 10
     4c0:	60 e0       	ldi	r22, 0x00	; 0
     4c2:	80 e0       	ldi	r24, 0x00	; 0
     4c4:	0c 94 ee 03 	jmp	0x7dc	; 0x7dc <nokia_lcd_drawline>
     4c8:	83 30       	cpi	r24, 0x03	; 3
     4ca:	b9 f0       	breq	.+46     	; 0x4fa <draw_line+0x54>
     4cc:	08 95       	ret
     4ce:	21 e1       	ldi	r18, 0x11	; 17
     4d0:	45 e1       	ldi	r20, 0x15	; 21
     4d2:	61 e1       	ldi	r22, 0x11	; 17
     4d4:	8b e0       	ldi	r24, 0x0B	; 11
     4d6:	0e 94 ee 03 	call	0x7dc	; 0x7dc <nokia_lcd_drawline>
     4da:	20 e0       	ldi	r18, 0x00	; 0
     4dc:	45 e1       	ldi	r20, 0x15	; 21
     4de:	60 e0       	ldi	r22, 0x00	; 0
     4e0:	8b e0       	ldi	r24, 0x0B	; 11
     4e2:	f0 cf       	rjmp	.-32     	; 0x4c4 <draw_line+0x1e>
     4e4:	21 e1       	ldi	r18, 0x11	; 17
     4e6:	40 e2       	ldi	r20, 0x20	; 32
     4e8:	61 e1       	ldi	r22, 0x11	; 17
     4ea:	86 e1       	ldi	r24, 0x16	; 22
     4ec:	0e 94 ee 03 	call	0x7dc	; 0x7dc <nokia_lcd_drawline>
     4f0:	20 e0       	ldi	r18, 0x00	; 0
     4f2:	40 e2       	ldi	r20, 0x20	; 32
     4f4:	60 e0       	ldi	r22, 0x00	; 0
     4f6:	86 e1       	ldi	r24, 0x16	; 22
     4f8:	e5 cf       	rjmp	.-54     	; 0x4c4 <draw_line+0x1e>
     4fa:	21 e1       	ldi	r18, 0x11	; 17
     4fc:	4b e2       	ldi	r20, 0x2B	; 43
     4fe:	61 e1       	ldi	r22, 0x11	; 17
     500:	81 e2       	ldi	r24, 0x21	; 33
     502:	0e 94 ee 03 	call	0x7dc	; 0x7dc <nokia_lcd_drawline>
     506:	20 e0       	ldi	r18, 0x00	; 0
     508:	4b e2       	ldi	r20, 0x2B	; 43
     50a:	60 e0       	ldi	r22, 0x00	; 0
     50c:	81 e2       	ldi	r24, 0x21	; 33
     50e:	da cf       	rjmp	.-76     	; 0x4c4 <draw_line+0x1e>

00000510 <write>:
     510:	29 98       	cbi	0x05, 1	; 5
     512:	66 23       	and	r22, r22
     514:	a9 f0       	breq	.+42     	; 0x540 <write+0x30>
     516:	2b 9a       	sbi	0x05, 3	; 5
     518:	27 e0       	ldi	r18, 0x07	; 7
     51a:	30 e0       	ldi	r19, 0x00	; 0
     51c:	90 e0       	ldi	r25, 0x00	; 0
     51e:	ac 01       	movw	r20, r24
     520:	02 2e       	mov	r0, r18
     522:	02 c0       	rjmp	.+4      	; 0x528 <write+0x18>
     524:	55 95       	asr	r21
     526:	47 95       	ror	r20
     528:	0a 94       	dec	r0
     52a:	e2 f7       	brpl	.-8      	; 0x524 <write+0x14>
     52c:	40 ff       	sbrs	r20, 0
     52e:	0a c0       	rjmp	.+20     	; 0x544 <write+0x34>
     530:	2c 9a       	sbi	0x05, 4	; 5
     532:	2d 9a       	sbi	0x05, 5	; 5
     534:	2d 98       	cbi	0x05, 5	; 5
     536:	21 50       	subi	r18, 0x01	; 1
     538:	31 09       	sbc	r19, r1
     53a:	88 f7       	brcc	.-30     	; 0x51e <write+0xe>
     53c:	29 9a       	sbi	0x05, 1	; 5
     53e:	08 95       	ret
     540:	2b 98       	cbi	0x05, 3	; 5
     542:	ea cf       	rjmp	.-44     	; 0x518 <write+0x8>
     544:	2c 98       	cbi	0x05, 4	; 5
     546:	f5 cf       	rjmp	.-22     	; 0x532 <write+0x22>

00000548 <write_cmd>:
     548:	60 e0       	ldi	r22, 0x00	; 0
     54a:	0c 94 88 02 	jmp	0x510	; 0x510 <write>

0000054e <nokia_lcd_init>:
     54e:	cf 93       	push	r28
     550:	df 93       	push	r29
     552:	21 9a       	sbi	0x04, 1	; 4
     554:	22 9a       	sbi	0x04, 2	; 4
     556:	23 9a       	sbi	0x04, 3	; 4
     558:	24 9a       	sbi	0x04, 4	; 4
     55a:	25 9a       	sbi	0x04, 5	; 4
     55c:	2a 9a       	sbi	0x05, 2	; 5
     55e:	29 9a       	sbi	0x05, 1	; 5
     560:	8f e3       	ldi	r24, 0x3F	; 63
     562:	9c e9       	ldi	r25, 0x9C	; 156
     564:	01 97       	sbiw	r24, 0x01	; 1
     566:	f1 f7       	brne	.-4      	; 0x564 <nokia_lcd_init+0x16>
     568:	00 c0       	rjmp	.+0      	; 0x56a <nokia_lcd_init+0x1c>
     56a:	00 00       	nop
     56c:	2a 98       	cbi	0x05, 2	; 5
     56e:	9f ef       	ldi	r25, 0xFF	; 255
     570:	2a e6       	ldi	r18, 0x6A	; 106
     572:	83 e0       	ldi	r24, 0x03	; 3
     574:	91 50       	subi	r25, 0x01	; 1
     576:	20 40       	sbci	r18, 0x00	; 0
     578:	80 40       	sbci	r24, 0x00	; 0
     57a:	e1 f7       	brne	.-8      	; 0x574 <nokia_lcd_init+0x26>
     57c:	00 c0       	rjmp	.+0      	; 0x57e <nokia_lcd_init+0x30>
     57e:	00 00       	nop
     580:	2a 9a       	sbi	0x05, 2	; 5
     582:	29 98       	cbi	0x05, 1	; 5
     584:	81 e2       	ldi	r24, 0x21	; 33
     586:	0e 94 a4 02 	call	0x548	; 0x548 <write_cmd>
     58a:	83 e1       	ldi	r24, 0x13	; 19
     58c:	0e 94 a4 02 	call	0x548	; 0x548 <write_cmd>
     590:	86 e0       	ldi	r24, 0x06	; 6
     592:	0e 94 a4 02 	call	0x548	; 0x548 <write_cmd>
     596:	82 ec       	ldi	r24, 0xC2	; 194
     598:	0e 94 a4 02 	call	0x548	; 0x548 <write_cmd>
     59c:	80 e2       	ldi	r24, 0x20	; 32
     59e:	0e 94 a4 02 	call	0x548	; 0x548 <write_cmd>
     5a2:	89 e0       	ldi	r24, 0x09	; 9
     5a4:	0e 94 a4 02 	call	0x548	; 0x548 <write_cmd>
     5a8:	80 e8       	ldi	r24, 0x80	; 128
     5aa:	0e 94 a4 02 	call	0x548	; 0x548 <write_cmd>
     5ae:	80 e4       	ldi	r24, 0x40	; 64
     5b0:	0e 94 a4 02 	call	0x548	; 0x548 <write_cmd>
     5b4:	c8 ef       	ldi	r28, 0xF8	; 248
     5b6:	d1 e0       	ldi	r29, 0x01	; 1
     5b8:	61 e0       	ldi	r22, 0x01	; 1
     5ba:	80 e0       	ldi	r24, 0x00	; 0
     5bc:	0e 94 88 02 	call	0x510	; 0x510 <write>
     5c0:	21 97       	sbiw	r28, 0x01	; 1
     5c2:	d1 f7       	brne	.-12     	; 0x5b8 <nokia_lcd_init+0x6a>
     5c4:	88 e0       	ldi	r24, 0x08	; 8
     5c6:	0e 94 a4 02 	call	0x548	; 0x548 <write_cmd>
     5ca:	8c e0       	ldi	r24, 0x0C	; 12
     5cc:	df 91       	pop	r29
     5ce:	cf 91       	pop	r28
     5d0:	0c 94 a4 02 	jmp	0x548	; 0x548 <write_cmd>

000005d4 <nokia_lcd_clear>:
     5d4:	80 e8       	ldi	r24, 0x80	; 128
     5d6:	0e 94 a4 02 	call	0x548	; 0x548 <write_cmd>
     5da:	80 e4       	ldi	r24, 0x40	; 64
     5dc:	0e 94 a4 02 	call	0x548	; 0x548 <write_cmd>
     5e0:	10 92 9a 03 	sts	0x039A, r1	; 0x80039a <nokia_lcd+0x1f8>
     5e4:	10 92 9b 03 	sts	0x039B, r1	; 0x80039b <nokia_lcd+0x1f9>
     5e8:	e2 ea       	ldi	r30, 0xA2	; 162
     5ea:	f1 e0       	ldi	r31, 0x01	; 1
     5ec:	88 ef       	ldi	r24, 0xF8	; 248
     5ee:	91 e0       	ldi	r25, 0x01	; 1
     5f0:	df 01       	movw	r26, r30
     5f2:	9c 01       	movw	r18, r24
     5f4:	1d 92       	st	X+, r1
     5f6:	21 50       	subi	r18, 0x01	; 1
     5f8:	30 40       	sbci	r19, 0x00	; 0
     5fa:	e1 f7       	brne	.-8      	; 0x5f4 <nokia_lcd_clear+0x20>
     5fc:	08 95       	ret

000005fe <nokia_lcd_power>:
     5fe:	81 11       	cpse	r24, r1
     600:	03 c0       	rjmp	.+6      	; 0x608 <nokia_lcd_power+0xa>
     602:	84 e2       	ldi	r24, 0x24	; 36
     604:	0c 94 a4 02 	jmp	0x548	; 0x548 <write_cmd>
     608:	80 e2       	ldi	r24, 0x20	; 32
     60a:	fc cf       	rjmp	.-8      	; 0x604 <nokia_lcd_power+0x6>

0000060c <nokia_lcd_set_pixel>:
     60c:	96 2f       	mov	r25, r22
     60e:	96 95       	lsr	r25
     610:	96 95       	lsr	r25
     612:	96 95       	lsr	r25
     614:	e8 2f       	mov	r30, r24
     616:	f0 e0       	ldi	r31, 0x00	; 0
     618:	84 e5       	ldi	r24, 0x54	; 84
     61a:	98 9f       	mul	r25, r24
     61c:	e0 0d       	add	r30, r0
     61e:	f1 1d       	adc	r31, r1
     620:	11 24       	eor	r1, r1
     622:	ee 55       	subi	r30, 0x5E	; 94
     624:	fe 4f       	sbci	r31, 0xFE	; 254
     626:	20 81       	ld	r18, Z
     628:	67 70       	andi	r22, 0x07	; 7
     62a:	81 e0       	ldi	r24, 0x01	; 1
     62c:	90 e0       	ldi	r25, 0x00	; 0
     62e:	01 c0       	rjmp	.+2      	; 0x632 <nokia_lcd_set_pixel+0x26>
     630:	88 0f       	add	r24, r24
     632:	6a 95       	dec	r22
     634:	ea f7       	brpl	.-6      	; 0x630 <nokia_lcd_set_pixel+0x24>
     636:	44 23       	and	r20, r20
     638:	19 f0       	breq	.+6      	; 0x640 <nokia_lcd_set_pixel+0x34>
     63a:	28 2b       	or	r18, r24
     63c:	20 83       	st	Z, r18
     63e:	08 95       	ret
     640:	80 95       	com	r24
     642:	28 23       	and	r18, r24
     644:	fb cf       	rjmp	.-10     	; 0x63c <nokia_lcd_set_pixel+0x30>

00000646 <nokia_lcd_write_char>:
     646:	8f 92       	push	r8
     648:	9f 92       	push	r9
     64a:	af 92       	push	r10
     64c:	bf 92       	push	r11
     64e:	df 92       	push	r13
     650:	ef 92       	push	r14
     652:	ff 92       	push	r15
     654:	0f 93       	push	r16
     656:	1f 93       	push	r17
     658:	cf 93       	push	r28
     65a:	df 93       	push	r29
     65c:	00 d0       	rcall	.+0      	; 0x65e <nokia_lcd_write_char+0x18>
     65e:	00 d0       	rcall	.+0      	; 0x660 <nokia_lcd_write_char+0x1a>
     660:	0f 92       	push	r0
     662:	cd b7       	in	r28, 0x3d	; 61
     664:	de b7       	in	r29, 0x3e	; 62
     666:	e8 2f       	mov	r30, r24
     668:	f6 2e       	mov	r15, r22
     66a:	80 32       	cpi	r24, 0x20	; 32
     66c:	0c f4       	brge	.+2      	; 0x670 <nokia_lcd_write_char+0x2a>
     66e:	4d c0       	rjmp	.+154    	; 0x70a <nokia_lcd_write_char+0xc4>
     670:	e0 52       	subi	r30, 0x20	; 32
     672:	85 e0       	ldi	r24, 0x05	; 5
     674:	e8 02       	muls	r30, r24
     676:	b0 01       	movw	r22, r0
     678:	11 24       	eor	r1, r1
     67a:	68 59       	subi	r22, 0x98	; 152
     67c:	7f 4f       	sbci	r23, 0xFF	; 255
     67e:	45 e0       	ldi	r20, 0x05	; 5
     680:	50 e0       	ldi	r21, 0x00	; 0
     682:	ce 01       	movw	r24, r28
     684:	01 96       	adiw	r24, 0x01	; 1
     686:	0e 94 5a 0b 	call	0x16b4	; 0x16b4 <memcpy_P>
     68a:	8e 01       	movw	r16, r28
     68c:	0f 5f       	subi	r16, 0xFF	; 255
     68e:	1f 4f       	sbci	r17, 0xFF	; 255
     690:	95 e0       	ldi	r25, 0x05	; 5
     692:	f9 9e       	mul	r15, r25
     694:	50 01       	movw	r10, r0
     696:	11 24       	eor	r1, r1
     698:	87 e0       	ldi	r24, 0x07	; 7
     69a:	f8 9e       	mul	r15, r24
     69c:	40 01       	movw	r8, r0
     69e:	11 24       	eor	r1, r1
     6a0:	e1 2c       	mov	r14, r1
     6a2:	ea 14       	cp	r14, r10
     6a4:	1b 04       	cpc	r1, r11
     6a6:	0c f4       	brge	.+2      	; 0x6aa <nokia_lcd_write_char+0x64>
     6a8:	63 c0       	rjmp	.+198    	; 0x770 <nokia_lcd_write_char+0x12a>
     6aa:	80 91 9a 03 	lds	r24, 0x039A	; 0x80039a <nokia_lcd+0x1f8>
     6ae:	8f 5f       	subi	r24, 0xFF	; 255
     6b0:	9f 2d       	mov	r25, r15
     6b2:	99 0f       	add	r25, r25
     6b4:	99 0f       	add	r25, r25
     6b6:	9f 0d       	add	r25, r15
     6b8:	89 0f       	add	r24, r25
     6ba:	80 93 9a 03 	sts	0x039A, r24	; 0x80039a <nokia_lcd+0x1f8>
     6be:	84 35       	cpi	r24, 0x54	; 84
     6c0:	58 f0       	brcs	.+22     	; 0x6d8 <nokia_lcd_write_char+0x92>
     6c2:	80 91 9b 03 	lds	r24, 0x039B	; 0x80039b <nokia_lcd+0x1f9>
     6c6:	10 92 9a 03 	sts	0x039A, r1	; 0x80039a <nokia_lcd+0x1f8>
     6ca:	8f 5f       	subi	r24, 0xFF	; 255
     6cc:	97 e0       	ldi	r25, 0x07	; 7
     6ce:	f9 9e       	mul	r15, r25
     6d0:	80 0d       	add	r24, r0
     6d2:	11 24       	eor	r1, r1
     6d4:	80 93 9b 03 	sts	0x039B, r24	; 0x80039b <nokia_lcd+0x1f9>
     6d8:	80 91 9b 03 	lds	r24, 0x039B	; 0x80039b <nokia_lcd+0x1f9>
     6dc:	80 33       	cpi	r24, 0x30	; 48
     6de:	20 f0       	brcs	.+8      	; 0x6e8 <nokia_lcd_write_char+0xa2>
     6e0:	10 92 9a 03 	sts	0x039A, r1	; 0x80039a <nokia_lcd+0x1f8>
     6e4:	10 92 9b 03 	sts	0x039B, r1	; 0x80039b <nokia_lcd+0x1f9>
     6e8:	0f 90       	pop	r0
     6ea:	0f 90       	pop	r0
     6ec:	0f 90       	pop	r0
     6ee:	0f 90       	pop	r0
     6f0:	0f 90       	pop	r0
     6f2:	df 91       	pop	r29
     6f4:	cf 91       	pop	r28
     6f6:	1f 91       	pop	r17
     6f8:	0f 91       	pop	r16
     6fa:	ff 90       	pop	r15
     6fc:	ef 90       	pop	r14
     6fe:	df 90       	pop	r13
     700:	bf 90       	pop	r11
     702:	af 90       	pop	r10
     704:	9f 90       	pop	r9
     706:	8f 90       	pop	r8
     708:	08 95       	ret
     70a:	ee 0f       	add	r30, r30
     70c:	ff 0b       	sbc	r31, r31
     70e:	ee 59       	subi	r30, 0x9E	; 158
     710:	fe 4f       	sbci	r31, 0xFE	; 254
     712:	00 81       	ld	r16, Z
     714:	11 81       	ldd	r17, Z+1	; 0x01
     716:	01 15       	cp	r16, r1
     718:	11 05       	cpc	r17, r1
     71a:	09 f0       	breq	.+2      	; 0x71e <nokia_lcd_write_char+0xd8>
     71c:	b9 cf       	rjmp	.-142    	; 0x690 <nokia_lcd_write_char+0x4a>
     71e:	45 e0       	ldi	r20, 0x05	; 5
     720:	50 e0       	ldi	r21, 0x00	; 0
     722:	68 e6       	ldi	r22, 0x68	; 104
     724:	70 e0       	ldi	r23, 0x00	; 0
     726:	ad cf       	rjmp	.-166    	; 0x682 <nokia_lcd_write_char+0x3c>
     728:	ed 0d       	add	r30, r13
     72a:	5e 0d       	add	r21, r14
     72c:	8e 2d       	mov	r24, r14
     72e:	6f 2d       	mov	r22, r15
     730:	0e 94 36 08 	call	0x106c	; 0x106c <__udivmodqi4>
     734:	d8 01       	movw	r26, r16
     736:	a8 0f       	add	r26, r24
     738:	b1 1d       	adc	r27, r1
     73a:	2c 91       	ld	r18, X
     73c:	30 e0       	ldi	r19, 0x00	; 0
     73e:	8d 2d       	mov	r24, r13
     740:	0e 94 36 08 	call	0x106c	; 0x106c <__udivmodqi4>
     744:	02 c0       	rjmp	.+4      	; 0x74a <nokia_lcd_write_char+0x104>
     746:	35 95       	asr	r19
     748:	27 95       	ror	r18
     74a:	8a 95       	dec	r24
     74c:	e2 f7       	brpl	.-8      	; 0x746 <nokia_lcd_write_char+0x100>
     74e:	41 e0       	ldi	r20, 0x01	; 1
     750:	20 ff       	sbrs	r18, 0
     752:	40 e0       	ldi	r20, 0x00	; 0
     754:	6e 2f       	mov	r22, r30
     756:	85 2f       	mov	r24, r21
     758:	0e 94 06 03 	call	0x60c	; 0x60c <nokia_lcd_set_pixel>
     75c:	d3 94       	inc	r13
     75e:	e0 91 9b 03 	lds	r30, 0x039B	; 0x80039b <nokia_lcd+0x1f9>
     762:	50 91 9a 03 	lds	r21, 0x039A	; 0x80039a <nokia_lcd+0x1f8>
     766:	d8 14       	cp	r13, r8
     768:	19 04       	cpc	r1, r9
     76a:	f4 f2       	brlt	.-68     	; 0x728 <nokia_lcd_write_char+0xe2>
     76c:	e3 94       	inc	r14
     76e:	99 cf       	rjmp	.-206    	; 0x6a2 <nokia_lcd_write_char+0x5c>
     770:	d1 2c       	mov	r13, r1
     772:	f5 cf       	rjmp	.-22     	; 0x75e <nokia_lcd_write_char+0x118>

00000774 <nokia_lcd_custom>:
     774:	e8 2f       	mov	r30, r24
     776:	80 32       	cpi	r24, 0x20	; 32
     778:	34 f4       	brge	.+12     	; 0x786 <nokia_lcd_custom+0x12>
     77a:	ee 0f       	add	r30, r30
     77c:	ff 0b       	sbc	r31, r31
     77e:	ee 59       	subi	r30, 0x9E	; 158
     780:	fe 4f       	sbci	r31, 0xFE	; 254
     782:	71 83       	std	Z+1, r23	; 0x01
     784:	60 83       	st	Z, r22
     786:	08 95       	ret

00000788 <nokia_lcd_write_string>:
     788:	1f 93       	push	r17
     78a:	cf 93       	push	r28
     78c:	df 93       	push	r29
     78e:	16 2f       	mov	r17, r22
     790:	ec 01       	movw	r28, r24
     792:	89 91       	ld	r24, Y+
     794:	81 11       	cpse	r24, r1
     796:	04 c0       	rjmp	.+8      	; 0x7a0 <nokia_lcd_write_string+0x18>
     798:	df 91       	pop	r29
     79a:	cf 91       	pop	r28
     79c:	1f 91       	pop	r17
     79e:	08 95       	ret
     7a0:	61 2f       	mov	r22, r17
     7a2:	0e 94 23 03 	call	0x646	; 0x646 <nokia_lcd_write_char>
     7a6:	f5 cf       	rjmp	.-22     	; 0x792 <nokia_lcd_write_string+0xa>

000007a8 <nokia_lcd_set_cursor>:
     7a8:	80 93 9a 03 	sts	0x039A, r24	; 0x80039a <nokia_lcd+0x1f8>
     7ac:	60 93 9b 03 	sts	0x039B, r22	; 0x80039b <nokia_lcd+0x1f9>
     7b0:	08 95       	ret

000007b2 <nokia_lcd_render>:
     7b2:	cf 93       	push	r28
     7b4:	df 93       	push	r29
     7b6:	80 e8       	ldi	r24, 0x80	; 128
     7b8:	0e 94 a4 02 	call	0x548	; 0x548 <write_cmd>
     7bc:	80 e4       	ldi	r24, 0x40	; 64
     7be:	0e 94 a4 02 	call	0x548	; 0x548 <write_cmd>
     7c2:	c2 ea       	ldi	r28, 0xA2	; 162
     7c4:	d1 e0       	ldi	r29, 0x01	; 1
     7c6:	61 e0       	ldi	r22, 0x01	; 1
     7c8:	89 91       	ld	r24, Y+
     7ca:	0e 94 88 02 	call	0x510	; 0x510 <write>
     7ce:	83 e0       	ldi	r24, 0x03	; 3
     7d0:	ca 39       	cpi	r28, 0x9A	; 154
     7d2:	d8 07       	cpc	r29, r24
     7d4:	c1 f7       	brne	.-16     	; 0x7c6 <nokia_lcd_render+0x14>
     7d6:	df 91       	pop	r29
     7d8:	cf 91       	pop	r28
     7da:	08 95       	ret

000007dc <nokia_lcd_drawline>:
     7dc:	4f 92       	push	r4
     7de:	5f 92       	push	r5
     7e0:	6f 92       	push	r6
     7e2:	7f 92       	push	r7
     7e4:	8f 92       	push	r8
     7e6:	9f 92       	push	r9
     7e8:	af 92       	push	r10
     7ea:	bf 92       	push	r11
     7ec:	cf 92       	push	r12
     7ee:	df 92       	push	r13
     7f0:	ef 92       	push	r14
     7f2:	ff 92       	push	r15
     7f4:	cf 93       	push	r28
     7f6:	df 93       	push	r29
     7f8:	cd b7       	in	r28, 0x3d	; 61
     7fa:	de b7       	in	r29, 0x3e	; 62
     7fc:	62 97       	sbiw	r28, 0x12	; 18
     7fe:	0f b6       	in	r0, 0x3f	; 63
     800:	f8 94       	cli
     802:	de bf       	out	0x3e, r29	; 62
     804:	0f be       	out	0x3f, r0	; 63
     806:	cd bf       	out	0x3d, r28	; 61
     808:	8d 87       	std	Y+13, r24	; 0x0d
     80a:	69 87       	std	Y+9, r22	; 0x09
     80c:	f2 2e       	mov	r15, r18
     80e:	48 1b       	sub	r20, r24
     810:	55 0b       	sbc	r21, r21
     812:	ca 01       	movw	r24, r20
     814:	55 0f       	add	r21, r21
     816:	aa 0b       	sbc	r26, r26
     818:	bb 0b       	sbc	r27, r27
     81a:	89 83       	std	Y+1, r24	; 0x01
     81c:	9a 83       	std	Y+2, r25	; 0x02
     81e:	ab 83       	std	Y+3, r26	; 0x03
     820:	bc 83       	std	Y+4, r27	; 0x04
     822:	bc 01       	movw	r22, r24
     824:	cd 01       	movw	r24, r26
     826:	0e 94 c0 09 	call	0x1380	; 0x1380 <__floatsisf>
     82a:	69 83       	std	Y+1, r22	; 0x01
     82c:	7a 83       	std	Y+2, r23	; 0x02
     82e:	8b 83       	std	Y+3, r24	; 0x03
     830:	9c 83       	std	Y+4, r25	; 0x04
     832:	af 2d       	mov	r26, r15
     834:	49 85       	ldd	r20, Y+9	; 0x09
     836:	a4 1b       	sub	r26, r20
     838:	bb 0b       	sbc	r27, r27
     83a:	cd 01       	movw	r24, r26
     83c:	bb 0f       	add	r27, r27
     83e:	aa 0b       	sbc	r26, r26
     840:	bb 0b       	sbc	r27, r27
     842:	8d 83       	std	Y+5, r24	; 0x05
     844:	9e 83       	std	Y+6, r25	; 0x06
     846:	af 83       	std	Y+7, r26	; 0x07
     848:	b8 87       	std	Y+8, r27	; 0x08
     84a:	bc 01       	movw	r22, r24
     84c:	cd 01       	movw	r24, r26
     84e:	0e 94 c0 09 	call	0x1380	; 0x1380 <__floatsisf>
     852:	6d 83       	std	Y+5, r22	; 0x05
     854:	7e 83       	std	Y+6, r23	; 0x06
     856:	8f 83       	std	Y+7, r24	; 0x07
     858:	98 87       	std	Y+8, r25	; 0x08
     85a:	c9 80       	ldd	r12, Y+1	; 0x01
     85c:	da 80       	ldd	r13, Y+2	; 0x02
     85e:	eb 80       	ldd	r14, Y+3	; 0x03
     860:	fc 80       	ldd	r15, Y+4	; 0x04
     862:	e8 94       	clt
     864:	f7 f8       	bld	r15, 7
     866:	4b 01       	movw	r8, r22
     868:	5c 01       	movw	r10, r24
     86a:	e8 94       	clt
     86c:	b7 f8       	bld	r11, 7
     86e:	a5 01       	movw	r20, r10
     870:	94 01       	movw	r18, r8
     872:	c7 01       	movw	r24, r14
     874:	b6 01       	movw	r22, r12
     876:	0e 94 70 0a 	call	0x14e0	; 0x14e0 <__gesf2>
     87a:	87 ff       	sbrs	r24, 7
     87c:	02 c0       	rjmp	.+4      	; 0x882 <nokia_lcd_drawline+0xa6>
     87e:	75 01       	movw	r14, r10
     880:	64 01       	movw	r12, r8
     882:	a7 01       	movw	r20, r14
     884:	96 01       	movw	r18, r12
     886:	69 81       	ldd	r22, Y+1	; 0x01
     888:	7a 81       	ldd	r23, Y+2	; 0x02
     88a:	8b 81       	ldd	r24, Y+3	; 0x03
     88c:	9c 81       	ldd	r25, Y+4	; 0x04
     88e:	0e 94 1d 09 	call	0x123a	; 0x123a <__divsf3>
     892:	69 83       	std	Y+1, r22	; 0x01
     894:	7a 83       	std	Y+2, r23	; 0x02
     896:	8b 83       	std	Y+3, r24	; 0x03
     898:	9c 83       	std	Y+4, r25	; 0x04
     89a:	4b 01       	movw	r8, r22
     89c:	5c 01       	movw	r10, r24
     89e:	a7 01       	movw	r20, r14
     8a0:	96 01       	movw	r18, r12
     8a2:	6d 81       	ldd	r22, Y+5	; 0x05
     8a4:	7e 81       	ldd	r23, Y+6	; 0x06
     8a6:	8f 81       	ldd	r24, Y+7	; 0x07
     8a8:	98 85       	ldd	r25, Y+8	; 0x08
     8aa:	0e 94 1d 09 	call	0x123a	; 0x123a <__divsf3>
     8ae:	2b 01       	movw	r4, r22
     8b0:	3c 01       	movw	r6, r24
     8b2:	9d 85       	ldd	r25, Y+13	; 0x0d
     8b4:	89 2f       	mov	r24, r25
     8b6:	90 e0       	ldi	r25, 0x00	; 0
     8b8:	b0 e0       	ldi	r27, 0x00	; 0
     8ba:	a0 e0       	ldi	r26, 0x00	; 0
     8bc:	89 83       	std	Y+1, r24	; 0x01
     8be:	9a 83       	std	Y+2, r25	; 0x02
     8c0:	ab 83       	std	Y+3, r26	; 0x03
     8c2:	bc 83       	std	Y+4, r27	; 0x04
     8c4:	bc 01       	movw	r22, r24
     8c6:	cd 01       	movw	r24, r26
     8c8:	0e 94 be 09 	call	0x137c	; 0x137c <__floatunsisf>
     8cc:	69 83       	std	Y+1, r22	; 0x01
     8ce:	7a 83       	std	Y+2, r23	; 0x02
     8d0:	8b 83       	std	Y+3, r24	; 0x03
     8d2:	9c 83       	std	Y+4, r25	; 0x04
     8d4:	99 85       	ldd	r25, Y+9	; 0x09
     8d6:	89 2f       	mov	r24, r25
     8d8:	90 e0       	ldi	r25, 0x00	; 0
     8da:	b0 e0       	ldi	r27, 0x00	; 0
     8dc:	a0 e0       	ldi	r26, 0x00	; 0
     8de:	8d 83       	std	Y+5, r24	; 0x05
     8e0:	9e 83       	std	Y+6, r25	; 0x06
     8e2:	af 83       	std	Y+7, r26	; 0x07
     8e4:	b8 87       	std	Y+8, r27	; 0x08
     8e6:	bc 01       	movw	r22, r24
     8e8:	cd 01       	movw	r24, r26
     8ea:	0e 94 be 09 	call	0x137c	; 0x137c <__floatunsisf>
     8ee:	6d 83       	std	Y+5, r22	; 0x05
     8f0:	7e 83       	std	Y+6, r23	; 0x06
     8f2:	8f 83       	std	Y+7, r24	; 0x07
     8f4:	98 87       	std	Y+8, r25	; 0x08
     8f6:	a1 e0       	ldi	r26, 0x01	; 1
     8f8:	b0 e0       	ldi	r27, 0x00	; 0
     8fa:	ba 8b       	std	Y+18, r27	; 0x12
     8fc:	a9 8b       	std	Y+17, r26	; 0x11
     8fe:	89 89       	ldd	r24, Y+17	; 0x11
     900:	9a 89       	ldd	r25, Y+18	; 0x12
     902:	09 2e       	mov	r0, r25
     904:	00 0c       	add	r0, r0
     906:	aa 0b       	sbc	r26, r26
     908:	bb 0b       	sbc	r27, r27
     90a:	89 87       	std	Y+9, r24	; 0x09
     90c:	9a 87       	std	Y+10, r25	; 0x0a
     90e:	ab 87       	std	Y+11, r26	; 0x0b
     910:	bc 87       	std	Y+12, r27	; 0x0c
     912:	bc 01       	movw	r22, r24
     914:	cd 01       	movw	r24, r26
     916:	0e 94 c0 09 	call	0x1380	; 0x1380 <__floatsisf>
     91a:	69 87       	std	Y+9, r22	; 0x09
     91c:	7a 87       	std	Y+10, r23	; 0x0a
     91e:	8b 87       	std	Y+11, r24	; 0x0b
     920:	9c 87       	std	Y+12, r25	; 0x0c
     922:	a7 01       	movw	r20, r14
     924:	96 01       	movw	r18, r12
     926:	0e 94 18 09 	call	0x1230	; 0x1230 <__cmpsf2>
     92a:	18 16       	cp	r1, r24
     92c:	ac f4       	brge	.+42     	; 0x958 <__stack+0x59>
     92e:	62 96       	adiw	r28, 0x12	; 18
     930:	0f b6       	in	r0, 0x3f	; 63
     932:	f8 94       	cli
     934:	de bf       	out	0x3e, r29	; 62
     936:	0f be       	out	0x3f, r0	; 63
     938:	cd bf       	out	0x3d, r28	; 61
     93a:	df 91       	pop	r29
     93c:	cf 91       	pop	r28
     93e:	ff 90       	pop	r15
     940:	ef 90       	pop	r14
     942:	df 90       	pop	r13
     944:	cf 90       	pop	r12
     946:	bf 90       	pop	r11
     948:	af 90       	pop	r10
     94a:	9f 90       	pop	r9
     94c:	8f 90       	pop	r8
     94e:	7f 90       	pop	r7
     950:	6f 90       	pop	r6
     952:	5f 90       	pop	r5
     954:	4f 90       	pop	r4
     956:	08 95       	ret
     958:	6d 81       	ldd	r22, Y+5	; 0x05
     95a:	7e 81       	ldd	r23, Y+6	; 0x06
     95c:	8f 81       	ldd	r24, Y+7	; 0x07
     95e:	98 85       	ldd	r25, Y+8	; 0x08
     960:	0e 94 8f 09 	call	0x131e	; 0x131e <__fixunssfsi>
     964:	69 87       	std	Y+9, r22	; 0x09
     966:	7a 87       	std	Y+10, r23	; 0x0a
     968:	8b 87       	std	Y+11, r24	; 0x0b
     96a:	9c 87       	std	Y+12, r25	; 0x0c
     96c:	69 81       	ldd	r22, Y+1	; 0x01
     96e:	7a 81       	ldd	r23, Y+2	; 0x02
     970:	8b 81       	ldd	r24, Y+3	; 0x03
     972:	9c 81       	ldd	r25, Y+4	; 0x04
     974:	0e 94 8f 09 	call	0x131e	; 0x131e <__fixunssfsi>
     978:	6d 87       	std	Y+13, r22	; 0x0d
     97a:	7e 87       	std	Y+14, r23	; 0x0e
     97c:	8f 87       	std	Y+15, r24	; 0x0f
     97e:	98 8b       	std	Y+16, r25	; 0x10
     980:	41 e0       	ldi	r20, 0x01	; 1
     982:	69 85       	ldd	r22, Y+9	; 0x09
     984:	8d 85       	ldd	r24, Y+13	; 0x0d
     986:	0e 94 06 03 	call	0x60c	; 0x60c <nokia_lcd_set_pixel>
     98a:	a5 01       	movw	r20, r10
     98c:	94 01       	movw	r18, r8
     98e:	69 81       	ldd	r22, Y+1	; 0x01
     990:	7a 81       	ldd	r23, Y+2	; 0x02
     992:	8b 81       	ldd	r24, Y+3	; 0x03
     994:	9c 81       	ldd	r25, Y+4	; 0x04
     996:	0e 94 ac 08 	call	0x1158	; 0x1158 <__addsf3>
     99a:	69 83       	std	Y+1, r22	; 0x01
     99c:	7a 83       	std	Y+2, r23	; 0x02
     99e:	8b 83       	std	Y+3, r24	; 0x03
     9a0:	9c 83       	std	Y+4, r25	; 0x04
     9a2:	a3 01       	movw	r20, r6
     9a4:	92 01       	movw	r18, r4
     9a6:	6d 81       	ldd	r22, Y+5	; 0x05
     9a8:	7e 81       	ldd	r23, Y+6	; 0x06
     9aa:	8f 81       	ldd	r24, Y+7	; 0x07
     9ac:	98 85       	ldd	r25, Y+8	; 0x08
     9ae:	0e 94 ac 08 	call	0x1158	; 0x1158 <__addsf3>
     9b2:	6d 83       	std	Y+5, r22	; 0x05
     9b4:	7e 83       	std	Y+6, r23	; 0x06
     9b6:	8f 83       	std	Y+7, r24	; 0x07
     9b8:	98 87       	std	Y+8, r25	; 0x08
     9ba:	89 89       	ldd	r24, Y+17	; 0x11
     9bc:	9a 89       	ldd	r25, Y+18	; 0x12
     9be:	01 96       	adiw	r24, 0x01	; 1
     9c0:	9a 8b       	std	Y+18, r25	; 0x12
     9c2:	89 8b       	std	Y+17, r24	; 0x11
     9c4:	9c cf       	rjmp	.-200    	; 0x8fe <nokia_lcd_drawline+0x122>

000009c6 <nokia_lcd_drawrect>:
     9c6:	0f 93       	push	r16
     9c8:	1f 93       	push	r17
     9ca:	cf 93       	push	r28
     9cc:	df 93       	push	r29
     9ce:	c8 2f       	mov	r28, r24
     9d0:	16 2f       	mov	r17, r22
     9d2:	04 2f       	mov	r16, r20
     9d4:	d2 2f       	mov	r29, r18
     9d6:	26 2f       	mov	r18, r22
     9d8:	0e 94 ee 03 	call	0x7dc	; 0x7dc <nokia_lcd_drawline>
     9dc:	2d 2f       	mov	r18, r29
     9de:	40 2f       	mov	r20, r16
     9e0:	61 2f       	mov	r22, r17
     9e2:	80 2f       	mov	r24, r16
     9e4:	0e 94 ee 03 	call	0x7dc	; 0x7dc <nokia_lcd_drawline>
     9e8:	2d 2f       	mov	r18, r29
     9ea:	4c 2f       	mov	r20, r28
     9ec:	6d 2f       	mov	r22, r29
     9ee:	80 2f       	mov	r24, r16
     9f0:	0e 94 ee 03 	call	0x7dc	; 0x7dc <nokia_lcd_drawline>
     9f4:	21 2f       	mov	r18, r17
     9f6:	4c 2f       	mov	r20, r28
     9f8:	6d 2f       	mov	r22, r29
     9fa:	8c 2f       	mov	r24, r28
     9fc:	df 91       	pop	r29
     9fe:	cf 91       	pop	r28
     a00:	1f 91       	pop	r17
     a02:	0f 91       	pop	r16
     a04:	0c 94 ee 03 	jmp	0x7dc	; 0x7dc <nokia_lcd_drawline>

00000a08 <nokia_lcd_drawcircle>:
     a08:	7f 92       	push	r7
     a0a:	8f 92       	push	r8
     a0c:	9f 92       	push	r9
     a0e:	af 92       	push	r10
     a10:	bf 92       	push	r11
     a12:	cf 92       	push	r12
     a14:	df 92       	push	r13
     a16:	ef 92       	push	r14
     a18:	ff 92       	push	r15
     a1a:	0f 93       	push	r16
     a1c:	1f 93       	push	r17
     a1e:	cf 93       	push	r28
     a20:	df 93       	push	r29
     a22:	d8 2e       	mov	r13, r24
     a24:	c6 2e       	mov	r12, r22
     a26:	c4 2f       	mov	r28, r20
     a28:	d0 e0       	ldi	r29, 0x00	; 0
     a2a:	f1 2c       	mov	r15, r1
     a2c:	e1 2c       	mov	r14, r1
     a2e:	10 e0       	ldi	r17, 0x00	; 0
     a30:	00 e0       	ldi	r16, 0x00	; 0
     a32:	41 e0       	ldi	r20, 0x01	; 1
     a34:	ac 2c       	mov	r10, r12
     a36:	a0 0e       	add	r10, r16
     a38:	6a 2d       	mov	r22, r10
     a3a:	bc 2e       	mov	r11, r28
     a3c:	bd 0c       	add	r11, r13
     a3e:	8b 2d       	mov	r24, r11
     a40:	0e 94 06 03 	call	0x60c	; 0x60c <nokia_lcd_set_pixel>
     a44:	41 e0       	ldi	r20, 0x01	; 1
     a46:	8c 2e       	mov	r8, r28
     a48:	8c 0c       	add	r8, r12
     a4a:	68 2d       	mov	r22, r8
     a4c:	9d 2c       	mov	r9, r13
     a4e:	90 0e       	add	r9, r16
     a50:	89 2d       	mov	r24, r9
     a52:	0e 94 06 03 	call	0x60c	; 0x60c <nokia_lcd_set_pixel>
     a56:	41 e0       	ldi	r20, 0x01	; 1
     a58:	68 2d       	mov	r22, r8
     a5a:	7d 2c       	mov	r7, r13
     a5c:	70 1a       	sub	r7, r16
     a5e:	87 2d       	mov	r24, r7
     a60:	0e 94 06 03 	call	0x60c	; 0x60c <nokia_lcd_set_pixel>
     a64:	41 e0       	ldi	r20, 0x01	; 1
     a66:	6a 2d       	mov	r22, r10
     a68:	8d 2c       	mov	r8, r13
     a6a:	8c 1a       	sub	r8, r28
     a6c:	88 2d       	mov	r24, r8
     a6e:	0e 94 06 03 	call	0x60c	; 0x60c <nokia_lcd_set_pixel>
     a72:	41 e0       	ldi	r20, 0x01	; 1
     a74:	ac 2c       	mov	r10, r12
     a76:	a0 1a       	sub	r10, r16
     a78:	6a 2d       	mov	r22, r10
     a7a:	88 2d       	mov	r24, r8
     a7c:	0e 94 06 03 	call	0x60c	; 0x60c <nokia_lcd_set_pixel>
     a80:	41 e0       	ldi	r20, 0x01	; 1
     a82:	8c 2c       	mov	r8, r12
     a84:	8c 1a       	sub	r8, r28
     a86:	68 2d       	mov	r22, r8
     a88:	87 2d       	mov	r24, r7
     a8a:	0e 94 06 03 	call	0x60c	; 0x60c <nokia_lcd_set_pixel>
     a8e:	41 e0       	ldi	r20, 0x01	; 1
     a90:	68 2d       	mov	r22, r8
     a92:	89 2d       	mov	r24, r9
     a94:	0e 94 06 03 	call	0x60c	; 0x60c <nokia_lcd_set_pixel>
     a98:	41 e0       	ldi	r20, 0x01	; 1
     a9a:	6a 2d       	mov	r22, r10
     a9c:	8b 2d       	mov	r24, r11
     a9e:	0e 94 06 03 	call	0x60c	; 0x60c <nokia_lcd_set_pixel>
     aa2:	1e 14       	cp	r1, r14
     aa4:	1f 04       	cpc	r1, r15
     aa6:	5c f0       	brlt	.+22     	; 0xabe <nokia_lcd_drawcircle+0xb6>
     aa8:	0f 5f       	subi	r16, 0xFF	; 255
     aaa:	1f 4f       	sbci	r17, 0xFF	; 255
     aac:	c8 01       	movw	r24, r16
     aae:	88 0f       	add	r24, r24
     ab0:	99 1f       	adc	r25, r25
     ab2:	01 96       	adiw	r24, 0x01	; 1
     ab4:	e8 0e       	add	r14, r24
     ab6:	f9 1e       	adc	r15, r25
     ab8:	1e 14       	cp	r1, r14
     aba:	1f 04       	cpc	r1, r15
     abc:	3c f4       	brge	.+14     	; 0xacc <nokia_lcd_drawcircle+0xc4>
     abe:	21 97       	sbiw	r28, 0x01	; 1
     ac0:	ce 01       	movw	r24, r28
     ac2:	88 0f       	add	r24, r24
     ac4:	99 1f       	adc	r25, r25
     ac6:	01 96       	adiw	r24, 0x01	; 1
     ac8:	e8 1a       	sub	r14, r24
     aca:	f9 0a       	sbc	r15, r25
     acc:	c0 17       	cp	r28, r16
     ace:	d1 07       	cpc	r29, r17
     ad0:	0c f0       	brlt	.+2      	; 0xad4 <nokia_lcd_drawcircle+0xcc>
     ad2:	af cf       	rjmp	.-162    	; 0xa32 <nokia_lcd_drawcircle+0x2a>
     ad4:	df 91       	pop	r29
     ad6:	cf 91       	pop	r28
     ad8:	1f 91       	pop	r17
     ada:	0f 91       	pop	r16
     adc:	ff 90       	pop	r15
     ade:	ef 90       	pop	r14
     ae0:	df 90       	pop	r13
     ae2:	cf 90       	pop	r12
     ae4:	bf 90       	pop	r11
     ae6:	af 90       	pop	r10
     ae8:	9f 90       	pop	r9
     aea:	8f 90       	pop	r8
     aec:	7f 90       	pop	r7
     aee:	08 95       	ret

00000af0 <USART_Init>:
     af0:	10 92 c5 00 	sts	0x00C5, r1	; 0x8000c5 <__TEXT_REGION_LENGTH__+0x7e00c5>
     af4:	80 e1       	ldi	r24, 0x10	; 16
     af6:	80 93 c4 00 	sts	0x00C4, r24	; 0x8000c4 <__TEXT_REGION_LENGTH__+0x7e00c4>
     afa:	86 e0       	ldi	r24, 0x06	; 6
     afc:	80 93 c2 00 	sts	0x00C2, r24	; 0x8000c2 <__TEXT_REGION_LENGTH__+0x7e00c2>
     b00:	88 e1       	ldi	r24, 0x18	; 24
     b02:	80 93 c1 00 	sts	0x00C1, r24	; 0x8000c1 <__TEXT_REGION_LENGTH__+0x7e00c1>
     b06:	08 95       	ret

00000b08 <USART_SendByte>:
     b08:	90 91 c0 00 	lds	r25, 0x00C0	; 0x8000c0 <__TEXT_REGION_LENGTH__+0x7e00c0>
     b0c:	95 ff       	sbrs	r25, 5
     b0e:	fc cf       	rjmp	.-8      	; 0xb08 <USART_SendByte>
     b10:	80 93 c6 00 	sts	0x00C6, r24	; 0x8000c6 <__TEXT_REGION_LENGTH__+0x7e00c6>
     b14:	08 95       	ret

00000b16 <USART_ReceiveByte>:
     b16:	80 91 c0 00 	lds	r24, 0x00C0	; 0x8000c0 <__TEXT_REGION_LENGTH__+0x7e00c0>
     b1a:	87 ff       	sbrs	r24, 7
     b1c:	fc cf       	rjmp	.-8      	; 0xb16 <USART_ReceiveByte>
     b1e:	80 91 c6 00 	lds	r24, 0x00C6	; 0x8000c6 <__TEXT_REGION_LENGTH__+0x7e00c6>
     b22:	08 95       	ret

00000b24 <USART_puts>:
     b24:	cf 93       	push	r28
     b26:	df 93       	push	r29
     b28:	ec 01       	movw	r28, r24
     b2a:	89 91       	ld	r24, Y+
     b2c:	81 11       	cpse	r24, r1
     b2e:	05 c0       	rjmp	.+10     	; 0xb3a <USART_puts+0x16>
     b30:	8a e0       	ldi	r24, 0x0A	; 10
     b32:	df 91       	pop	r29
     b34:	cf 91       	pop	r28
     b36:	0c 94 84 05 	jmp	0xb08	; 0xb08 <USART_SendByte>
     b3a:	0e 94 84 05 	call	0xb08	; 0xb08 <USART_SendByte>
     b3e:	f5 cf       	rjmp	.-22     	; 0xb2a <USART_puts+0x6>

00000b40 <adc_init>:
     b40:	ea e7       	ldi	r30, 0x7A	; 122
     b42:	f0 e0       	ldi	r31, 0x00	; 0
     b44:	80 e8       	ldi	r24, 0x80	; 128
     b46:	80 83       	st	Z, r24
     b48:	ac e7       	ldi	r26, 0x7C	; 124
     b4a:	b0 e0       	ldi	r27, 0x00	; 0
     b4c:	8c 91       	ld	r24, X
     b4e:	80 64       	ori	r24, 0x40	; 64
     b50:	8c 93       	st	X, r24
     b52:	80 81       	ld	r24, Z
     b54:	87 60       	ori	r24, 0x07	; 7
     b56:	80 83       	st	Z, r24
     b58:	08 95       	ret

00000b5a <adc_set_channel>:
     b5a:	ec e7       	ldi	r30, 0x7C	; 124
     b5c:	f0 e0       	ldi	r31, 0x00	; 0
     b5e:	90 81       	ld	r25, Z
     b60:	90 7f       	andi	r25, 0xF0	; 240
     b62:	90 83       	st	Z, r25
     b64:	90 81       	ld	r25, Z
     b66:	98 2b       	or	r25, r24
     b68:	90 83       	st	Z, r25
     b6a:	8f ea       	ldi	r24, 0xAF	; 175
     b6c:	94 e0       	ldi	r25, 0x04	; 4
     b6e:	01 97       	sbiw	r24, 0x01	; 1
     b70:	f1 f7       	brne	.-4      	; 0xb6e <adc_set_channel+0x14>
     b72:	00 c0       	rjmp	.+0      	; 0xb74 <adc_set_channel+0x1a>
     b74:	00 00       	nop
     b76:	08 95       	ret

00000b78 <adc_read>:
     b78:	80 91 7a 00 	lds	r24, 0x007A	; 0x80007a <__TEXT_REGION_LENGTH__+0x7e007a>
     b7c:	80 64       	ori	r24, 0x40	; 64
     b7e:	80 93 7a 00 	sts	0x007A, r24	; 0x80007a <__TEXT_REGION_LENGTH__+0x7e007a>
     b82:	80 91 7a 00 	lds	r24, 0x007A	; 0x80007a <__TEXT_REGION_LENGTH__+0x7e007a>
     b86:	86 ff       	sbrs	r24, 6
     b88:	fc cf       	rjmp	.-8      	; 0xb82 <adc_read+0xa>
     b8a:	80 91 7a 00 	lds	r24, 0x007A	; 0x80007a <__TEXT_REGION_LENGTH__+0x7e007a>
     b8e:	80 61       	ori	r24, 0x10	; 16
     b90:	80 93 7a 00 	sts	0x007A, r24	; 0x80007a <__TEXT_REGION_LENGTH__+0x7e007a>
     b94:	80 91 78 00 	lds	r24, 0x0078	; 0x800078 <__TEXT_REGION_LENGTH__+0x7e0078>
     b98:	90 91 79 00 	lds	r25, 0x0079	; 0x800079 <__TEXT_REGION_LENGTH__+0x7e0079>
     b9c:	08 95       	ret

00000b9e <printint>:
     b9e:	8f 92       	push	r8
     ba0:	9f 92       	push	r9
     ba2:	af 92       	push	r10
     ba4:	bf 92       	push	r11
     ba6:	df 92       	push	r13
     ba8:	ef 92       	push	r14
     baa:	ff 92       	push	r15
     bac:	0f 93       	push	r16
     bae:	1f 93       	push	r17
     bb0:	cf 93       	push	r28
     bb2:	df 93       	push	r29
     bb4:	cd b7       	in	r28, 0x3d	; 61
     bb6:	de b7       	in	r29, 0x3e	; 62
     bb8:	a2 97       	sbiw	r28, 0x22	; 34
     bba:	0f b6       	in	r0, 0x3f	; 63
     bbc:	f8 94       	cli
     bbe:	de bf       	out	0x3e, r29	; 62
     bc0:	0f be       	out	0x3f, r0	; 63
     bc2:	cd bf       	out	0x3d, r28	; 61
     bc4:	6f 8f       	std	Y+31, r22	; 0x1f
     bc6:	78 a3       	std	Y+32, r23	; 0x20
     bc8:	89 a3       	std	Y+33, r24	; 0x21
     bca:	9a a3       	std	Y+34, r25	; 0x22
     bcc:	dc 01       	movw	r26, r24
     bce:	cb 01       	movw	r24, r22
     bd0:	b7 fd       	sbrc	r27, 7
     bd2:	46 c0       	rjmp	.+140    	; 0xc60 <printint+0xc2>
     bd4:	8e 01       	movw	r16, r28
     bd6:	0f 5f       	subi	r16, 0xFF	; 255
     bd8:	1f 4f       	sbci	r17, 0xFF	; 255
     bda:	78 01       	movw	r14, r16
     bdc:	2a e0       	ldi	r18, 0x0A	; 10
     bde:	82 2e       	mov	r8, r18
     be0:	91 2c       	mov	r9, r1
     be2:	a1 2c       	mov	r10, r1
     be4:	b1 2c       	mov	r11, r1
     be6:	6f 8d       	ldd	r22, Y+31	; 0x1f
     be8:	78 a1       	ldd	r23, Y+32	; 0x20
     bea:	89 a1       	ldd	r24, Y+33	; 0x21
     bec:	9a a1       	ldd	r25, Y+34	; 0x22
     bee:	a5 01       	movw	r20, r10
     bf0:	94 01       	movw	r18, r8
     bf2:	0e 94 56 08 	call	0x10ac	; 0x10ac <__divmodsi4>
     bf6:	6f 8f       	std	Y+31, r22	; 0x1f
     bf8:	78 a3       	std	Y+32, r23	; 0x20
     bfa:	89 a3       	std	Y+33, r24	; 0x21
     bfc:	9a a3       	std	Y+34, r25	; 0x22
     bfe:	f8 01       	movw	r30, r16
     c00:	0f 5f       	subi	r16, 0xFF	; 255
     c02:	1f 4f       	sbci	r17, 0xFF	; 255
     c04:	8f 8d       	ldd	r24, Y+31	; 0x1f
     c06:	80 5d       	subi	r24, 0xD0	; 208
     c08:	80 83       	st	Z, r24
     c0a:	2f 8f       	std	Y+31, r18	; 0x1f
     c0c:	38 a3       	std	Y+32, r19	; 0x20
     c0e:	49 a3       	std	Y+33, r20	; 0x21
     c10:	5a a3       	std	Y+34, r21	; 0x22
     c12:	23 2b       	or	r18, r19
     c14:	24 2b       	or	r18, r20
     c16:	25 2b       	or	r18, r21
     c18:	31 f7       	brne	.-52     	; 0xbe6 <printint+0x48>
     c1a:	d8 01       	movw	r26, r16
     c1c:	1c 92       	st	X, r1
     c1e:	f7 01       	movw	r30, r14
     c20:	01 50       	subi	r16, 0x01	; 1
     c22:	11 09       	sbc	r17, r1
     c24:	0e 17       	cp	r16, r30
     c26:	1f 07       	cpc	r17, r31
     c28:	08 f0       	brcs	.+2      	; 0xc2c <printint+0x8e>
     c2a:	43 c0       	rjmp	.+134    	; 0xcb2 <printint+0x114>
     c2c:	8e 01       	movw	r16, r28
     c2e:	0f 5f       	subi	r16, 0xFF	; 255
     c30:	1f 4f       	sbci	r17, 0xFF	; 255
     c32:	f8 01       	movw	r30, r16
     c34:	81 91       	ld	r24, Z+
     c36:	8f 01       	movw	r16, r30
     c38:	81 11       	cpse	r24, r1
     c3a:	44 c0       	rjmp	.+136    	; 0xcc4 <printint+0x126>
     c3c:	a2 96       	adiw	r28, 0x22	; 34
     c3e:	0f b6       	in	r0, 0x3f	; 63
     c40:	f8 94       	cli
     c42:	de bf       	out	0x3e, r29	; 62
     c44:	0f be       	out	0x3f, r0	; 63
     c46:	cd bf       	out	0x3d, r28	; 61
     c48:	df 91       	pop	r29
     c4a:	cf 91       	pop	r28
     c4c:	1f 91       	pop	r17
     c4e:	0f 91       	pop	r16
     c50:	ff 90       	pop	r15
     c52:	ef 90       	pop	r14
     c54:	df 90       	pop	r13
     c56:	bf 90       	pop	r11
     c58:	af 90       	pop	r10
     c5a:	9f 90       	pop	r9
     c5c:	8f 90       	pop	r8
     c5e:	08 95       	ret
     c60:	8d e2       	ldi	r24, 0x2D	; 45
     c62:	89 83       	std	Y+1, r24	; 0x01
     c64:	8e 01       	movw	r16, r28
     c66:	0e 5f       	subi	r16, 0xFE	; 254
     c68:	1f 4f       	sbci	r17, 0xFF	; 255
     c6a:	78 01       	movw	r14, r16
     c6c:	8a e0       	ldi	r24, 0x0A	; 10
     c6e:	88 2e       	mov	r8, r24
     c70:	91 2c       	mov	r9, r1
     c72:	a1 2c       	mov	r10, r1
     c74:	b1 2c       	mov	r11, r1
     c76:	90 e3       	ldi	r25, 0x30	; 48
     c78:	d9 2e       	mov	r13, r25
     c7a:	6f 8d       	ldd	r22, Y+31	; 0x1f
     c7c:	78 a1       	ldd	r23, Y+32	; 0x20
     c7e:	89 a1       	ldd	r24, Y+33	; 0x21
     c80:	9a a1       	ldd	r25, Y+34	; 0x22
     c82:	a5 01       	movw	r20, r10
     c84:	94 01       	movw	r18, r8
     c86:	0e 94 56 08 	call	0x10ac	; 0x10ac <__divmodsi4>
     c8a:	6f 8f       	std	Y+31, r22	; 0x1f
     c8c:	78 a3       	std	Y+32, r23	; 0x20
     c8e:	89 a3       	std	Y+33, r24	; 0x21
     c90:	9a a3       	std	Y+34, r25	; 0x22
     c92:	f8 01       	movw	r30, r16
     c94:	0f 5f       	subi	r16, 0xFF	; 255
     c96:	1f 4f       	sbci	r17, 0xFF	; 255
     c98:	8d 2d       	mov	r24, r13
     c9a:	9f 8d       	ldd	r25, Y+31	; 0x1f
     c9c:	89 1b       	sub	r24, r25
     c9e:	80 83       	st	Z, r24
     ca0:	2f 8f       	std	Y+31, r18	; 0x1f
     ca2:	38 a3       	std	Y+32, r19	; 0x20
     ca4:	49 a3       	std	Y+33, r20	; 0x21
     ca6:	5a a3       	std	Y+34, r21	; 0x22
     ca8:	23 2b       	or	r18, r19
     caa:	24 2b       	or	r18, r20
     cac:	25 2b       	or	r18, r21
     cae:	29 f7       	brne	.-54     	; 0xc7a <printint+0xdc>
     cb0:	b4 cf       	rjmp	.-152    	; 0xc1a <printint+0x7c>
     cb2:	81 91       	ld	r24, Z+
     cb4:	d8 01       	movw	r26, r16
     cb6:	9c 91       	ld	r25, X
     cb8:	df 01       	movw	r26, r30
     cba:	11 97       	sbiw	r26, 0x01	; 1
     cbc:	9c 93       	st	X, r25
     cbe:	d8 01       	movw	r26, r16
     cc0:	8c 93       	st	X, r24
     cc2:	ae cf       	rjmp	.-164    	; 0xc20 <printint+0x82>
     cc4:	0e 94 84 05 	call	0xb08	; 0xb08 <USART_SendByte>
     cc8:	b4 cf       	rjmp	.-152    	; 0xc32 <printint+0x94>

00000cca <printhex>:
     cca:	6f 92       	push	r6
     ccc:	7f 92       	push	r7
     cce:	8f 92       	push	r8
     cd0:	9f 92       	push	r9
     cd2:	af 92       	push	r10
     cd4:	bf 92       	push	r11
     cd6:	cf 92       	push	r12
     cd8:	df 92       	push	r13
     cda:	ef 92       	push	r14
     cdc:	ff 92       	push	r15
     cde:	0f 93       	push	r16
     ce0:	1f 93       	push	r17
     ce2:	cf 93       	push	r28
     ce4:	df 93       	push	r29
     ce6:	cd b7       	in	r28, 0x3d	; 61
     ce8:	de b7       	in	r29, 0x3e	; 62
     cea:	a2 97       	sbiw	r28, 0x22	; 34
     cec:	0f b6       	in	r0, 0x3f	; 63
     cee:	f8 94       	cli
     cf0:	de bf       	out	0x3e, r29	; 62
     cf2:	0f be       	out	0x3f, r0	; 63
     cf4:	cd bf       	out	0x3d, r28	; 61
     cf6:	6f 8f       	std	Y+31, r22	; 0x1f
     cf8:	78 a3       	std	Y+32, r23	; 0x20
     cfa:	89 a3       	std	Y+33, r24	; 0x21
     cfc:	9a a3       	std	Y+34, r25	; 0x22
     cfe:	4b 01       	movw	r8, r22
     d00:	5c 01       	movw	r10, r24
     d02:	bc 01       	movw	r22, r24
     d04:	a4 01       	movw	r20, r8
     d06:	fe 01       	movw	r30, r28
     d08:	31 96       	adiw	r30, 0x01	; 1
     d0a:	3f 01       	movw	r6, r30
     d0c:	9f 01       	movw	r18, r30
     d0e:	31 96       	adiw	r30, 0x01	; 1
     d10:	6a 01       	movw	r12, r20
     d12:	7b 01       	movw	r14, r22
     d14:	1f e0       	ldi	r17, 0x0F	; 15
     d16:	c1 22       	and	r12, r17
     d18:	dd 24       	eor	r13, r13
     d1a:	ee 24       	eor	r14, r14
     d1c:	ff 24       	eor	r15, r15
     d1e:	80 e3       	ldi	r24, 0x30	; 48
     d20:	c8 0e       	add	r12, r24
     d22:	d9 01       	movw	r26, r18
     d24:	cc 92       	st	X, r12
     d26:	6a 01       	movw	r12, r20
     d28:	7b 01       	movw	r14, r22
     d2a:	94 e0       	ldi	r25, 0x04	; 4
     d2c:	76 95       	lsr	r23
     d2e:	67 95       	ror	r22
     d30:	57 95       	ror	r21
     d32:	47 95       	ror	r20
     d34:	9a 95       	dec	r25
     d36:	d1 f7       	brne	.-12     	; 0xd2c <printhex+0x62>
     d38:	b0 e1       	ldi	r27, 0x10	; 16
     d3a:	cb 16       	cp	r12, r27
     d3c:	d1 04       	cpc	r13, r1
     d3e:	e1 04       	cpc	r14, r1
     d40:	f1 04       	cpc	r15, r1
     d42:	20 f7       	brcc	.-56     	; 0xd0c <printhex+0x42>
     d44:	10 e1       	ldi	r17, 0x10	; 16
     d46:	81 16       	cp	r8, r17
     d48:	91 04       	cpc	r9, r1
     d4a:	a1 04       	cpc	r10, r1
     d4c:	b1 04       	cpc	r11, r1
     d4e:	10 f4       	brcc	.+4      	; 0xd54 <printhex+0x8a>
     d50:	80 83       	st	Z, r24
     d52:	31 96       	adiw	r30, 0x01	; 1
     d54:	10 82       	st	Z, r1
     d56:	83 01       	movw	r16, r6
     d58:	d3 01       	movw	r26, r6
     d5a:	31 97       	sbiw	r30, 0x01	; 1
     d5c:	ea 17       	cp	r30, r26
     d5e:	fb 07       	cpc	r31, r27
     d60:	d0 f4       	brcc	.+52     	; 0xd96 <printhex+0xcc>
     d62:	d8 01       	movw	r26, r16
     d64:	8d 91       	ld	r24, X+
     d66:	8d 01       	movw	r16, r26
     d68:	81 11       	cpse	r24, r1
     d6a:	20 c0       	rjmp	.+64     	; 0xdac <printhex+0xe2>
     d6c:	a2 96       	adiw	r28, 0x22	; 34
     d6e:	0f b6       	in	r0, 0x3f	; 63
     d70:	f8 94       	cli
     d72:	de bf       	out	0x3e, r29	; 62
     d74:	0f be       	out	0x3f, r0	; 63
     d76:	cd bf       	out	0x3d, r28	; 61
     d78:	df 91       	pop	r29
     d7a:	cf 91       	pop	r28
     d7c:	1f 91       	pop	r17
     d7e:	0f 91       	pop	r16
     d80:	ff 90       	pop	r15
     d82:	ef 90       	pop	r14
     d84:	df 90       	pop	r13
     d86:	cf 90       	pop	r12
     d88:	bf 90       	pop	r11
     d8a:	af 90       	pop	r10
     d8c:	9f 90       	pop	r9
     d8e:	8f 90       	pop	r8
     d90:	7f 90       	pop	r7
     d92:	6f 90       	pop	r6
     d94:	08 95       	ret
     d96:	8c 91       	ld	r24, X
     d98:	8a 33       	cpi	r24, 0x3A	; 58
     d9a:	0c f0       	brlt	.+2      	; 0xd9e <printhex+0xd4>
     d9c:	89 5d       	subi	r24, 0xD9	; 217
     d9e:	90 81       	ld	r25, Z
     da0:	9a 33       	cpi	r25, 0x3A	; 58
     da2:	0c f0       	brlt	.+2      	; 0xda6 <printhex+0xdc>
     da4:	99 5d       	subi	r25, 0xD9	; 217
     da6:	9d 93       	st	X+, r25
     da8:	80 83       	st	Z, r24
     daa:	d7 cf       	rjmp	.-82     	; 0xd5a <printhex+0x90>
     dac:	0e 94 84 05 	call	0xb08	; 0xb08 <USART_SendByte>
     db0:	d8 cf       	rjmp	.-80     	; 0xd62 <printhex+0x98>

00000db2 <print>:
     db2:	cf 93       	push	r28
     db4:	df 93       	push	r29
     db6:	ec 01       	movw	r28, r24
     db8:	89 91       	ld	r24, Y+
     dba:	81 11       	cpse	r24, r1
     dbc:	03 c0       	rjmp	.+6      	; 0xdc4 <print+0x12>
     dbe:	df 91       	pop	r29
     dc0:	cf 91       	pop	r28
     dc2:	08 95       	ret
     dc4:	0e 94 84 05 	call	0xb08	; 0xb08 <USART_SendByte>
     dc8:	f7 cf       	rjmp	.-18     	; 0xdb8 <print+0x6>

00000dca <printfloat>:
     dca:	cf 93       	push	r28
     dcc:	df 93       	push	r29
     dce:	cd b7       	in	r28, 0x3d	; 61
     dd0:	de b7       	in	r29, 0x3e	; 62
     dd2:	28 97       	sbiw	r28, 0x08	; 8
     dd4:	0f b6       	in	r0, 0x3f	; 63
     dd6:	f8 94       	cli
     dd8:	de bf       	out	0x3e, r29	; 62
     dda:	0f be       	out	0x3f, r0	; 63
     ddc:	cd bf       	out	0x3d, r28	; 61
     dde:	69 83       	std	Y+1, r22	; 0x01
     de0:	7a 83       	std	Y+2, r23	; 0x02
     de2:	8b 83       	std	Y+3, r24	; 0x03
     de4:	9c 83       	std	Y+4, r25	; 0x04
     de6:	0e 94 8f 09 	call	0x131e	; 0x131e <__fixunssfsi>
     dea:	6d 83       	std	Y+5, r22	; 0x05
     dec:	7e 83       	std	Y+6, r23	; 0x06
     dee:	8f 83       	std	Y+7, r24	; 0x07
     df0:	98 87       	std	Y+8, r25	; 0x08
     df2:	0e 94 cf 05 	call	0xb9e	; 0xb9e <printint>
     df6:	8e e5       	ldi	r24, 0x5E	; 94
     df8:	91 e0       	ldi	r25, 0x01	; 1
     dfa:	0e 94 d9 06 	call	0xdb2	; 0xdb2 <print>
     dfe:	6d 81       	ldd	r22, Y+5	; 0x05
     e00:	7e 81       	ldd	r23, Y+6	; 0x06
     e02:	8f 81       	ldd	r24, Y+7	; 0x07
     e04:	98 85       	ldd	r25, Y+8	; 0x08
     e06:	0e 94 be 09 	call	0x137c	; 0x137c <__floatunsisf>
     e0a:	6d 83       	std	Y+5, r22	; 0x05
     e0c:	7e 83       	std	Y+6, r23	; 0x06
     e0e:	8f 83       	std	Y+7, r24	; 0x07
     e10:	98 87       	std	Y+8, r25	; 0x08
     e12:	9b 01       	movw	r18, r22
     e14:	ac 01       	movw	r20, r24
     e16:	69 81       	ldd	r22, Y+1	; 0x01
     e18:	7a 81       	ldd	r23, Y+2	; 0x02
     e1a:	8b 81       	ldd	r24, Y+3	; 0x03
     e1c:	9c 81       	ldd	r25, Y+4	; 0x04
     e1e:	0e 94 ab 08 	call	0x1156	; 0x1156 <__subsf3>
     e22:	69 83       	std	Y+1, r22	; 0x01
     e24:	7a 83       	std	Y+2, r23	; 0x02
     e26:	8b 83       	std	Y+3, r24	; 0x03
     e28:	9c 83       	std	Y+4, r25	; 0x04
     e2a:	20 e0       	ldi	r18, 0x00	; 0
     e2c:	30 e0       	ldi	r19, 0x00	; 0
     e2e:	4a e7       	ldi	r20, 0x7A	; 122
     e30:	54 e4       	ldi	r21, 0x44	; 68
     e32:	0e 94 75 0a 	call	0x14ea	; 0x14ea <__mulsf3>
     e36:	69 83       	std	Y+1, r22	; 0x01
     e38:	7a 83       	std	Y+2, r23	; 0x02
     e3a:	8b 83       	std	Y+3, r24	; 0x03
     e3c:	9c 83       	std	Y+4, r25	; 0x04
     e3e:	0e 94 8f 09 	call	0x131e	; 0x131e <__fixunssfsi>
     e42:	69 83       	std	Y+1, r22	; 0x01
     e44:	7a 83       	std	Y+2, r23	; 0x02
     e46:	8b 83       	std	Y+3, r24	; 0x03
     e48:	9c 83       	std	Y+4, r25	; 0x04
     e4a:	dc 01       	movw	r26, r24
     e4c:	cb 01       	movw	r24, r22
     e4e:	84 36       	cpi	r24, 0x64	; 100
     e50:	91 05       	cpc	r25, r1
     e52:	a1 05       	cpc	r26, r1
     e54:	b1 05       	cpc	r27, r1
     e56:	80 f4       	brcc	.+32     	; 0xe78 <printfloat+0xae>
     e58:	80 e6       	ldi	r24, 0x60	; 96
     e5a:	91 e0       	ldi	r25, 0x01	; 1
     e5c:	0e 94 d9 06 	call	0xdb2	; 0xdb2 <print>
     e60:	89 81       	ldd	r24, Y+1	; 0x01
     e62:	9a 81       	ldd	r25, Y+2	; 0x02
     e64:	ab 81       	ldd	r26, Y+3	; 0x03
     e66:	bc 81       	ldd	r27, Y+4	; 0x04
     e68:	0a 97       	sbiw	r24, 0x0a	; 10
     e6a:	a1 05       	cpc	r26, r1
     e6c:	b1 05       	cpc	r27, r1
     e6e:	20 f4       	brcc	.+8      	; 0xe78 <printfloat+0xae>
     e70:	80 e6       	ldi	r24, 0x60	; 96
     e72:	91 e0       	ldi	r25, 0x01	; 1
     e74:	0e 94 d9 06 	call	0xdb2	; 0xdb2 <print>
     e78:	69 81       	ldd	r22, Y+1	; 0x01
     e7a:	7a 81       	ldd	r23, Y+2	; 0x02
     e7c:	8b 81       	ldd	r24, Y+3	; 0x03
     e7e:	9c 81       	ldd	r25, Y+4	; 0x04
     e80:	28 96       	adiw	r28, 0x08	; 8
     e82:	0f b6       	in	r0, 0x3f	; 63
     e84:	f8 94       	cli
     e86:	de bf       	out	0x3e, r29	; 62
     e88:	0f be       	out	0x3f, r0	; 63
     e8a:	cd bf       	out	0x3d, r28	; 61
     e8c:	df 91       	pop	r29
     e8e:	cf 91       	pop	r28
     e90:	0c 94 cf 05 	jmp	0xb9e	; 0xb9e <printint>

00000e94 <time>:
     e94:	a4 e0       	ldi	r26, 0x04	; 4
     e96:	b0 e0       	ldi	r27, 0x00	; 0
     e98:	e0 e5       	ldi	r30, 0x50	; 80
     e9a:	f7 e0       	ldi	r31, 0x07	; 7
     e9c:	0c 94 86 0b 	jmp	0x170c	; 0x170c <__prologue_saves__+0x20>
     ea0:	fc 01       	movw	r30, r24
     ea2:	0f b6       	in	r0, 0x3f	; 63
     ea4:	f8 94       	cli
     ea6:	80 91 9c 03 	lds	r24, 0x039C	; 0x80039c <__system_time>
     eaa:	90 91 9d 03 	lds	r25, 0x039D	; 0x80039d <__system_time+0x1>
     eae:	a0 91 9e 03 	lds	r26, 0x039E	; 0x80039e <__system_time+0x2>
     eb2:	b0 91 9f 03 	lds	r27, 0x039F	; 0x80039f <__system_time+0x3>
     eb6:	89 83       	std	Y+1, r24	; 0x01
     eb8:	9a 83       	std	Y+2, r25	; 0x02
     eba:	ab 83       	std	Y+3, r26	; 0x03
     ebc:	bc 83       	std	Y+4, r27	; 0x04
     ebe:	0f be       	out	0x3f, r0	; 63
     ec0:	30 97       	sbiw	r30, 0x00	; 0
     ec2:	21 f0       	breq	.+8      	; 0xecc <time+0x38>
     ec4:	80 83       	st	Z, r24
     ec6:	91 83       	std	Z+1, r25	; 0x01
     ec8:	a2 83       	std	Z+2, r26	; 0x02
     eca:	b3 83       	std	Z+3, r27	; 0x03
     ecc:	69 81       	ldd	r22, Y+1	; 0x01
     ece:	7a 81       	ldd	r23, Y+2	; 0x02
     ed0:	8b 81       	ldd	r24, Y+3	; 0x03
     ed2:	9c 81       	ldd	r25, Y+4	; 0x04
     ed4:	24 96       	adiw	r28, 0x04	; 4
     ed6:	e2 e0       	ldi	r30, 0x02	; 2
     ed8:	0c 94 a2 0b 	jmp	0x1744	; 0x1744 <__epilogue_restores__+0x20>

00000edc <main>:
     edc:	00 d0       	rcall	.+0      	; 0xede <main+0x2>
     ede:	00 d0       	rcall	.+0      	; 0xee0 <main+0x4>
     ee0:	00 d0       	rcall	.+0      	; 0xee2 <main+0x6>
     ee2:	cd b7       	in	r28, 0x3d	; 61
     ee4:	de b7       	in	r29, 0x3e	; 62
     ee6:	90 e0       	ldi	r25, 0x00	; 0
     ee8:	80 e0       	ldi	r24, 0x00	; 0
     eea:	0e 94 4a 07 	call	0xe94	; 0xe94 <time>
     eee:	6b 83       	std	Y+3, r22	; 0x03
     ef0:	7c 83       	std	Y+4, r23	; 0x04
     ef2:	8d 83       	std	Y+5, r24	; 0x05
     ef4:	9e 83       	std	Y+6, r25	; 0x06
     ef6:	cb 01       	movw	r24, r22
     ef8:	0e 94 4f 0b 	call	0x169e	; 0x169e <srand>
     efc:	0e 94 21 02 	call	0x442	; 0x442 <def_senha>
     f00:	8a e1       	ldi	r24, 0x1A	; 26
     f02:	91 e0       	ldi	r25, 0x01	; 1
     f04:	0e 94 d9 06 	call	0xdb2	; 0xdb2 <print>
     f08:	85 e0       	ldi	r24, 0x05	; 5
     f0a:	91 e0       	ldi	r25, 0x01	; 1
     f0c:	0e 94 d9 06 	call	0xdb2	; 0xdb2 <print>
     f10:	83 e1       	ldi	r24, 0x13	; 19
     f12:	91 e0       	ldi	r25, 0x01	; 1
     f14:	0e 94 d9 06 	call	0xdb2	; 0xdb2 <print>
     f18:	0e 94 a7 02 	call	0x54e	; 0x54e <nokia_lcd_init>
     f1c:	0e 94 ea 02 	call	0x5d4	; 0x5d4 <nokia_lcd_clear>
     f20:	0e 94 78 05 	call	0xaf0	; 0xaf0 <USART_Init>
     f24:	0e 94 a0 05 	call	0xb40	; 0xb40 <adc_init>
     f28:	20 98       	cbi	0x04, 0	; 4
     f2a:	1a 82       	std	Y+2, r1	; 0x02
     f2c:	19 82       	std	Y+1, r1	; 0x01
     f2e:	b1 2c       	mov	r11, r1
     f30:	a1 2c       	mov	r10, r1
     f32:	cc 24       	eor	r12, r12
     f34:	c3 94       	inc	r12
     f36:	d1 2c       	mov	r13, r1
     f38:	80 e0       	ldi	r24, 0x00	; 0
     f3a:	0e 94 ad 05 	call	0xb5a	; 0xb5a <adc_set_channel>
     f3e:	0e 94 bc 05 	call	0xb78	; 0xb78 <adc_read>
     f42:	8c 01       	movw	r16, r24
     f44:	81 e0       	ldi	r24, 0x01	; 1
     f46:	0e 94 ad 05 	call	0xb5a	; 0xb5a <adc_set_channel>
     f4a:	0e 94 bc 05 	call	0xb78	; 0xb78 <adc_read>
     f4e:	7c 01       	movw	r14, r24
     f50:	83 b1       	in	r24, 0x03	; 3
     f52:	28 2f       	mov	r18, r24
     f54:	21 70       	andi	r18, 0x01	; 1
     f56:	72 2e       	mov	r7, r18
     f58:	80 fd       	sbrc	r24, 0
     f5a:	82 c0       	rjmp	.+260    	; 0x1060 <main+0x184>
     f5c:	c1 14       	cp	r12, r1
     f5e:	d1 04       	cpc	r13, r1
     f60:	91 f0       	breq	.+36     	; 0xf86 <main+0xaa>
     f62:	0e 94 ea 02 	call	0x5d4	; 0x5d4 <nokia_lcd_clear>
     f66:	61 e0       	ldi	r22, 0x01	; 1
     f68:	83 e2       	ldi	r24, 0x23	; 35
     f6a:	91 e0       	ldi	r25, 0x01	; 1
     f6c:	0e 94 c4 03 	call	0x788	; 0x788 <nokia_lcd_write_string>
     f70:	68 e1       	ldi	r22, 0x18	; 24
     f72:	80 e0       	ldi	r24, 0x00	; 0
     f74:	0e 94 d4 03 	call	0x7a8	; 0x7a8 <nokia_lcd_set_cursor>
     f78:	61 e0       	ldi	r22, 0x01	; 1
     f7a:	80 e4       	ldi	r24, 0x40	; 64
     f7c:	91 e0       	ldi	r25, 0x01	; 1
     f7e:	0e 94 c4 03 	call	0x788	; 0x788 <nokia_lcd_write_string>
     f82:	0e 94 d9 03 	call	0x7b2	; 0x7b2 <nokia_lcd_render>
     f86:	a1 14       	cp	r10, r1
     f88:	b1 04       	cpc	r11, r1
     f8a:	b1 f2       	breq	.-84     	; 0xf38 <main+0x5c>
     f8c:	0e 94 ea 02 	call	0x5d4	; 0x5d4 <nokia_lcd_clear>
     f90:	62 e0       	ldi	r22, 0x02	; 2
     f92:	80 e0       	ldi	r24, 0x00	; 0
     f94:	0e 94 d4 03 	call	0x7a8	; 0x7a8 <nokia_lcd_set_cursor>
     f98:	62 e0       	ldi	r22, 0x02	; 2
     f9a:	80 e0       	ldi	r24, 0x00	; 0
     f9c:	91 e0       	ldi	r25, 0x01	; 1
     f9e:	0e 94 c4 03 	call	0x788	; 0x788 <nokia_lcd_write_string>
     fa2:	c7 01       	movw	r24, r14
     fa4:	b0 e0       	ldi	r27, 0x00	; 0
     fa6:	a0 e0       	ldi	r26, 0x00	; 0
     fa8:	8b 83       	std	Y+3, r24	; 0x03
     faa:	9c 83       	std	Y+4, r25	; 0x04
     fac:	ad 83       	std	Y+5, r26	; 0x05
     fae:	be 83       	std	Y+6, r27	; 0x06
     fb0:	b7 01       	movw	r22, r14
     fb2:	cd 01       	movw	r24, r26
     fb4:	0e 94 be 09 	call	0x137c	; 0x137c <__floatunsisf>
     fb8:	6b 83       	std	Y+3, r22	; 0x03
     fba:	7c 83       	std	Y+4, r23	; 0x04
     fbc:	8d 83       	std	Y+5, r24	; 0x05
     fbe:	9e 83       	std	Y+6, r25	; 0x06
     fc0:	20 e0       	ldi	r18, 0x00	; 0
     fc2:	30 e0       	ldi	r19, 0x00	; 0
     fc4:	40 e8       	ldi	r20, 0x80	; 128
     fc6:	5a e3       	ldi	r21, 0x3A	; 58
     fc8:	0e 94 75 0a 	call	0x14ea	; 0x14ea <__mulsf3>
     fcc:	4b 01       	movw	r8, r22
     fce:	5c 01       	movw	r10, r24
     fd0:	c8 01       	movw	r24, r16
     fd2:	b0 e0       	ldi	r27, 0x00	; 0
     fd4:	a0 e0       	ldi	r26, 0x00	; 0
     fd6:	8b 83       	std	Y+3, r24	; 0x03
     fd8:	9c 83       	std	Y+4, r25	; 0x04
     fda:	ad 83       	std	Y+5, r26	; 0x05
     fdc:	be 83       	std	Y+6, r27	; 0x06
     fde:	b8 01       	movw	r22, r16
     fe0:	cd 01       	movw	r24, r26
     fe2:	0e 94 be 09 	call	0x137c	; 0x137c <__floatunsisf>
     fe6:	6b 83       	std	Y+3, r22	; 0x03
     fe8:	7c 83       	std	Y+4, r23	; 0x04
     fea:	8d 83       	std	Y+5, r24	; 0x05
     fec:	9e 83       	std	Y+6, r25	; 0x06
     fee:	20 e0       	ldi	r18, 0x00	; 0
     ff0:	30 e0       	ldi	r19, 0x00	; 0
     ff2:	40 e8       	ldi	r20, 0x80	; 128
     ff4:	5a e3       	ldi	r21, 0x3A	; 58
     ff6:	0e 94 75 0a 	call	0x14ea	; 0x14ea <__mulsf3>
     ffa:	6b 83       	std	Y+3, r22	; 0x03
     ffc:	7c 83       	std	Y+4, r23	; 0x04
     ffe:	8d 83       	std	Y+5, r24	; 0x05
    1000:	9e 83       	std	Y+6, r25	; 0x06
    1002:	de 01       	movw	r26, r28
    1004:	11 96       	adiw	r26, 0x01	; 1
    1006:	7d 01       	movw	r14, r26
    1008:	07 2d       	mov	r16, r7
    100a:	a5 01       	movw	r20, r10
    100c:	94 01       	movw	r18, r8
    100e:	0e 94 52 01 	call	0x2a4	; 0x2a4 <joystick_control>
    1012:	89 2b       	or	r24, r25
    1014:	49 f0       	breq	.+18     	; 0x1028 <main+0x14c>
    1016:	bf ef       	ldi	r27, 0xFF	; 255
    1018:	21 ee       	ldi	r18, 0xE1	; 225
    101a:	84 e0       	ldi	r24, 0x04	; 4
    101c:	b1 50       	subi	r27, 0x01	; 1
    101e:	20 40       	sbci	r18, 0x00	; 0
    1020:	80 40       	sbci	r24, 0x00	; 0
    1022:	e1 f7       	brne	.-8      	; 0x101c <main+0x140>
    1024:	00 c0       	rjmp	.+0      	; 0x1026 <main+0x14a>
    1026:	00 00       	nop
    1028:	89 81       	ldd	r24, Y+1	; 0x01
    102a:	0e 94 53 02 	call	0x4a6	; 0x4a6 <draw_line>
    102e:	0e 94 d9 03 	call	0x7b2	; 0x7b2 <nokia_lcd_render>
    1032:	77 20       	and	r7, r7
    1034:	89 f0       	breq	.+34     	; 0x1058 <main+0x17c>
    1036:	0e 94 43 01 	call	0x286	; 0x286 <senha_diferente>
    103a:	89 2b       	or	r24, r25
    103c:	a1 f4       	brne	.+40     	; 0x1066 <main+0x18a>
    103e:	8e e4       	ldi	r24, 0x4E	; 78
    1040:	91 e0       	ldi	r25, 0x01	; 1
    1042:	0e 94 d9 06 	call	0xdb2	; 0xdb2 <print>
    1046:	9f ef       	ldi	r25, 0xFF	; 255
    1048:	a3 ed       	ldi	r26, 0xD3	; 211
    104a:	b0 e3       	ldi	r27, 0x30	; 48
    104c:	91 50       	subi	r25, 0x01	; 1
    104e:	a0 40       	sbci	r26, 0x00	; 0
    1050:	b0 40       	sbci	r27, 0x00	; 0
    1052:	e1 f7       	brne	.-8      	; 0x104c <main+0x170>
    1054:	00 c0       	rjmp	.+0      	; 0x1056 <main+0x17a>
    1056:	00 00       	nop
    1058:	aa 24       	eor	r10, r10
    105a:	a3 94       	inc	r10
    105c:	b1 2c       	mov	r11, r1
    105e:	6c cf       	rjmp	.-296    	; 0xf38 <main+0x5c>
    1060:	d1 2c       	mov	r13, r1
    1062:	c1 2c       	mov	r12, r1
    1064:	93 cf       	rjmp	.-218    	; 0xf8c <main+0xb0>
    1066:	84 e5       	ldi	r24, 0x54	; 84
    1068:	91 e0       	ldi	r25, 0x01	; 1
    106a:	eb cf       	rjmp	.-42     	; 0x1042 <main+0x166>

0000106c <__udivmodqi4>:
    106c:	99 1b       	sub	r25, r25
    106e:	79 e0       	ldi	r23, 0x09	; 9
    1070:	04 c0       	rjmp	.+8      	; 0x107a <__udivmodqi4_ep>

00001072 <__udivmodqi4_loop>:
    1072:	99 1f       	adc	r25, r25
    1074:	96 17       	cp	r25, r22
    1076:	08 f0       	brcs	.+2      	; 0x107a <__udivmodqi4_ep>
    1078:	96 1b       	sub	r25, r22

0000107a <__udivmodqi4_ep>:
    107a:	88 1f       	adc	r24, r24
    107c:	7a 95       	dec	r23
    107e:	c9 f7       	brne	.-14     	; 0x1072 <__udivmodqi4_loop>
    1080:	80 95       	com	r24
    1082:	08 95       	ret

00001084 <__divmodhi4>:
    1084:	97 fb       	bst	r25, 7
    1086:	07 2e       	mov	r0, r23
    1088:	16 f4       	brtc	.+4      	; 0x108e <__divmodhi4+0xa>
    108a:	00 94       	com	r0
    108c:	07 d0       	rcall	.+14     	; 0x109c <__divmodhi4_neg1>
    108e:	77 fd       	sbrc	r23, 7
    1090:	09 d0       	rcall	.+18     	; 0x10a4 <__divmodhi4_neg2>
    1092:	0e 94 75 08 	call	0x10ea	; 0x10ea <__udivmodhi4>
    1096:	07 fc       	sbrc	r0, 7
    1098:	05 d0       	rcall	.+10     	; 0x10a4 <__divmodhi4_neg2>
    109a:	3e f4       	brtc	.+14     	; 0x10aa <__divmodhi4_exit>

0000109c <__divmodhi4_neg1>:
    109c:	90 95       	com	r25
    109e:	81 95       	neg	r24
    10a0:	9f 4f       	sbci	r25, 0xFF	; 255
    10a2:	08 95       	ret

000010a4 <__divmodhi4_neg2>:
    10a4:	70 95       	com	r23
    10a6:	61 95       	neg	r22
    10a8:	7f 4f       	sbci	r23, 0xFF	; 255

000010aa <__divmodhi4_exit>:
    10aa:	08 95       	ret

000010ac <__divmodsi4>:
    10ac:	05 2e       	mov	r0, r21
    10ae:	97 fb       	bst	r25, 7
    10b0:	1e f4       	brtc	.+6      	; 0x10b8 <__divmodsi4+0xc>
    10b2:	00 94       	com	r0
    10b4:	0e 94 6d 08 	call	0x10da	; 0x10da <__negsi2>
    10b8:	57 fd       	sbrc	r21, 7
    10ba:	07 d0       	rcall	.+14     	; 0x10ca <__divmodsi4_neg2>
    10bc:	0e 94 89 08 	call	0x1112	; 0x1112 <__udivmodsi4>
    10c0:	07 fc       	sbrc	r0, 7
    10c2:	03 d0       	rcall	.+6      	; 0x10ca <__divmodsi4_neg2>
    10c4:	4e f4       	brtc	.+18     	; 0x10d8 <__divmodsi4_exit>
    10c6:	0c 94 6d 08 	jmp	0x10da	; 0x10da <__negsi2>

000010ca <__divmodsi4_neg2>:
    10ca:	50 95       	com	r21
    10cc:	40 95       	com	r20
    10ce:	30 95       	com	r19
    10d0:	21 95       	neg	r18
    10d2:	3f 4f       	sbci	r19, 0xFF	; 255
    10d4:	4f 4f       	sbci	r20, 0xFF	; 255
    10d6:	5f 4f       	sbci	r21, 0xFF	; 255

000010d8 <__divmodsi4_exit>:
    10d8:	08 95       	ret

000010da <__negsi2>:
    10da:	90 95       	com	r25
    10dc:	80 95       	com	r24
    10de:	70 95       	com	r23
    10e0:	61 95       	neg	r22
    10e2:	7f 4f       	sbci	r23, 0xFF	; 255
    10e4:	8f 4f       	sbci	r24, 0xFF	; 255
    10e6:	9f 4f       	sbci	r25, 0xFF	; 255
    10e8:	08 95       	ret

000010ea <__udivmodhi4>:
    10ea:	aa 1b       	sub	r26, r26
    10ec:	bb 1b       	sub	r27, r27
    10ee:	51 e1       	ldi	r21, 0x11	; 17
    10f0:	07 c0       	rjmp	.+14     	; 0x1100 <__udivmodhi4_ep>

000010f2 <__udivmodhi4_loop>:
    10f2:	aa 1f       	adc	r26, r26
    10f4:	bb 1f       	adc	r27, r27
    10f6:	a6 17       	cp	r26, r22
    10f8:	b7 07       	cpc	r27, r23
    10fa:	10 f0       	brcs	.+4      	; 0x1100 <__udivmodhi4_ep>
    10fc:	a6 1b       	sub	r26, r22
    10fe:	b7 0b       	sbc	r27, r23

00001100 <__udivmodhi4_ep>:
    1100:	88 1f       	adc	r24, r24
    1102:	99 1f       	adc	r25, r25
    1104:	5a 95       	dec	r21
    1106:	a9 f7       	brne	.-22     	; 0x10f2 <__udivmodhi4_loop>
    1108:	80 95       	com	r24
    110a:	90 95       	com	r25
    110c:	bc 01       	movw	r22, r24
    110e:	cd 01       	movw	r24, r26
    1110:	08 95       	ret

00001112 <__udivmodsi4>:
    1112:	a1 e2       	ldi	r26, 0x21	; 33
    1114:	1a 2e       	mov	r1, r26
    1116:	aa 1b       	sub	r26, r26
    1118:	bb 1b       	sub	r27, r27
    111a:	fd 01       	movw	r30, r26
    111c:	0d c0       	rjmp	.+26     	; 0x1138 <__udivmodsi4_ep>

0000111e <__udivmodsi4_loop>:
    111e:	aa 1f       	adc	r26, r26
    1120:	bb 1f       	adc	r27, r27
    1122:	ee 1f       	adc	r30, r30
    1124:	ff 1f       	adc	r31, r31
    1126:	a2 17       	cp	r26, r18
    1128:	b3 07       	cpc	r27, r19
    112a:	e4 07       	cpc	r30, r20
    112c:	f5 07       	cpc	r31, r21
    112e:	20 f0       	brcs	.+8      	; 0x1138 <__udivmodsi4_ep>
    1130:	a2 1b       	sub	r26, r18
    1132:	b3 0b       	sbc	r27, r19
    1134:	e4 0b       	sbc	r30, r20
    1136:	f5 0b       	sbc	r31, r21

00001138 <__udivmodsi4_ep>:
    1138:	66 1f       	adc	r22, r22
    113a:	77 1f       	adc	r23, r23
    113c:	88 1f       	adc	r24, r24
    113e:	99 1f       	adc	r25, r25
    1140:	1a 94       	dec	r1
    1142:	69 f7       	brne	.-38     	; 0x111e <__udivmodsi4_loop>
    1144:	60 95       	com	r22
    1146:	70 95       	com	r23
    1148:	80 95       	com	r24
    114a:	90 95       	com	r25
    114c:	9b 01       	movw	r18, r22
    114e:	ac 01       	movw	r20, r24
    1150:	bd 01       	movw	r22, r26
    1152:	cf 01       	movw	r24, r30
    1154:	08 95       	ret

00001156 <__subsf3>:
    1156:	50 58       	subi	r21, 0x80	; 128

00001158 <__addsf3>:
    1158:	bb 27       	eor	r27, r27
    115a:	aa 27       	eor	r26, r26
    115c:	0e 94 c3 08 	call	0x1186	; 0x1186 <__addsf3x>
    1160:	0c 94 36 0a 	jmp	0x146c	; 0x146c <__fp_round>
    1164:	0e 94 28 0a 	call	0x1450	; 0x1450 <__fp_pscA>
    1168:	38 f0       	brcs	.+14     	; 0x1178 <__addsf3+0x20>
    116a:	0e 94 2f 0a 	call	0x145e	; 0x145e <__fp_pscB>
    116e:	20 f0       	brcs	.+8      	; 0x1178 <__addsf3+0x20>
    1170:	39 f4       	brne	.+14     	; 0x1180 <__addsf3+0x28>
    1172:	9f 3f       	cpi	r25, 0xFF	; 255
    1174:	19 f4       	brne	.+6      	; 0x117c <__addsf3+0x24>
    1176:	26 f4       	brtc	.+8      	; 0x1180 <__addsf3+0x28>
    1178:	0c 94 25 0a 	jmp	0x144a	; 0x144a <__fp_nan>
    117c:	0e f4       	brtc	.+2      	; 0x1180 <__addsf3+0x28>
    117e:	e0 95       	com	r30
    1180:	e7 fb       	bst	r30, 7
    1182:	0c 94 1f 0a 	jmp	0x143e	; 0x143e <__fp_inf>

00001186 <__addsf3x>:
    1186:	e9 2f       	mov	r30, r25
    1188:	0e 94 47 0a 	call	0x148e	; 0x148e <__fp_split3>
    118c:	58 f3       	brcs	.-42     	; 0x1164 <__addsf3+0xc>
    118e:	ba 17       	cp	r27, r26
    1190:	62 07       	cpc	r22, r18
    1192:	73 07       	cpc	r23, r19
    1194:	84 07       	cpc	r24, r20
    1196:	95 07       	cpc	r25, r21
    1198:	20 f0       	brcs	.+8      	; 0x11a2 <__addsf3x+0x1c>
    119a:	79 f4       	brne	.+30     	; 0x11ba <__addsf3x+0x34>
    119c:	a6 f5       	brtc	.+104    	; 0x1206 <__addsf3x+0x80>
    119e:	0c 94 69 0a 	jmp	0x14d2	; 0x14d2 <__fp_zero>
    11a2:	0e f4       	brtc	.+2      	; 0x11a6 <__addsf3x+0x20>
    11a4:	e0 95       	com	r30
    11a6:	0b 2e       	mov	r0, r27
    11a8:	ba 2f       	mov	r27, r26
    11aa:	a0 2d       	mov	r26, r0
    11ac:	0b 01       	movw	r0, r22
    11ae:	b9 01       	movw	r22, r18
    11b0:	90 01       	movw	r18, r0
    11b2:	0c 01       	movw	r0, r24
    11b4:	ca 01       	movw	r24, r20
    11b6:	a0 01       	movw	r20, r0
    11b8:	11 24       	eor	r1, r1
    11ba:	ff 27       	eor	r31, r31
    11bc:	59 1b       	sub	r21, r25
    11be:	99 f0       	breq	.+38     	; 0x11e6 <__addsf3x+0x60>
    11c0:	59 3f       	cpi	r21, 0xF9	; 249
    11c2:	50 f4       	brcc	.+20     	; 0x11d8 <__addsf3x+0x52>
    11c4:	50 3e       	cpi	r21, 0xE0	; 224
    11c6:	68 f1       	brcs	.+90     	; 0x1222 <__addsf3x+0x9c>
    11c8:	1a 16       	cp	r1, r26
    11ca:	f0 40       	sbci	r31, 0x00	; 0
    11cc:	a2 2f       	mov	r26, r18
    11ce:	23 2f       	mov	r18, r19
    11d0:	34 2f       	mov	r19, r20
    11d2:	44 27       	eor	r20, r20
    11d4:	58 5f       	subi	r21, 0xF8	; 248
    11d6:	f3 cf       	rjmp	.-26     	; 0x11be <__addsf3x+0x38>
    11d8:	46 95       	lsr	r20
    11da:	37 95       	ror	r19
    11dc:	27 95       	ror	r18
    11de:	a7 95       	ror	r26
    11e0:	f0 40       	sbci	r31, 0x00	; 0
    11e2:	53 95       	inc	r21
    11e4:	c9 f7       	brne	.-14     	; 0x11d8 <__addsf3x+0x52>
    11e6:	7e f4       	brtc	.+30     	; 0x1206 <__addsf3x+0x80>
    11e8:	1f 16       	cp	r1, r31
    11ea:	ba 0b       	sbc	r27, r26
    11ec:	62 0b       	sbc	r22, r18
    11ee:	73 0b       	sbc	r23, r19
    11f0:	84 0b       	sbc	r24, r20
    11f2:	ba f0       	brmi	.+46     	; 0x1222 <__addsf3x+0x9c>
    11f4:	91 50       	subi	r25, 0x01	; 1
    11f6:	a1 f0       	breq	.+40     	; 0x1220 <__addsf3x+0x9a>
    11f8:	ff 0f       	add	r31, r31
    11fa:	bb 1f       	adc	r27, r27
    11fc:	66 1f       	adc	r22, r22
    11fe:	77 1f       	adc	r23, r23
    1200:	88 1f       	adc	r24, r24
    1202:	c2 f7       	brpl	.-16     	; 0x11f4 <__addsf3x+0x6e>
    1204:	0e c0       	rjmp	.+28     	; 0x1222 <__addsf3x+0x9c>
    1206:	ba 0f       	add	r27, r26
    1208:	62 1f       	adc	r22, r18
    120a:	73 1f       	adc	r23, r19
    120c:	84 1f       	adc	r24, r20
    120e:	48 f4       	brcc	.+18     	; 0x1222 <__addsf3x+0x9c>
    1210:	87 95       	ror	r24
    1212:	77 95       	ror	r23
    1214:	67 95       	ror	r22
    1216:	b7 95       	ror	r27
    1218:	f7 95       	ror	r31
    121a:	9e 3f       	cpi	r25, 0xFE	; 254
    121c:	08 f0       	brcs	.+2      	; 0x1220 <__addsf3x+0x9a>
    121e:	b0 cf       	rjmp	.-160    	; 0x1180 <__addsf3+0x28>
    1220:	93 95       	inc	r25
    1222:	88 0f       	add	r24, r24
    1224:	08 f0       	brcs	.+2      	; 0x1228 <__addsf3x+0xa2>
    1226:	99 27       	eor	r25, r25
    1228:	ee 0f       	add	r30, r30
    122a:	97 95       	ror	r25
    122c:	87 95       	ror	r24
    122e:	08 95       	ret

00001230 <__cmpsf2>:
    1230:	0e 94 fb 09 	call	0x13f6	; 0x13f6 <__fp_cmp>
    1234:	08 f4       	brcc	.+2      	; 0x1238 <__cmpsf2+0x8>
    1236:	81 e0       	ldi	r24, 0x01	; 1
    1238:	08 95       	ret

0000123a <__divsf3>:
    123a:	0e 94 31 09 	call	0x1262	; 0x1262 <__divsf3x>
    123e:	0c 94 36 0a 	jmp	0x146c	; 0x146c <__fp_round>
    1242:	0e 94 2f 0a 	call	0x145e	; 0x145e <__fp_pscB>
    1246:	58 f0       	brcs	.+22     	; 0x125e <__divsf3+0x24>
    1248:	0e 94 28 0a 	call	0x1450	; 0x1450 <__fp_pscA>
    124c:	40 f0       	brcs	.+16     	; 0x125e <__divsf3+0x24>
    124e:	29 f4       	brne	.+10     	; 0x125a <__divsf3+0x20>
    1250:	5f 3f       	cpi	r21, 0xFF	; 255
    1252:	29 f0       	breq	.+10     	; 0x125e <__divsf3+0x24>
    1254:	0c 94 1f 0a 	jmp	0x143e	; 0x143e <__fp_inf>
    1258:	51 11       	cpse	r21, r1
    125a:	0c 94 6a 0a 	jmp	0x14d4	; 0x14d4 <__fp_szero>
    125e:	0c 94 25 0a 	jmp	0x144a	; 0x144a <__fp_nan>

00001262 <__divsf3x>:
    1262:	0e 94 47 0a 	call	0x148e	; 0x148e <__fp_split3>
    1266:	68 f3       	brcs	.-38     	; 0x1242 <__divsf3+0x8>

00001268 <__divsf3_pse>:
    1268:	99 23       	and	r25, r25
    126a:	b1 f3       	breq	.-20     	; 0x1258 <__divsf3+0x1e>
    126c:	55 23       	and	r21, r21
    126e:	91 f3       	breq	.-28     	; 0x1254 <__divsf3+0x1a>
    1270:	95 1b       	sub	r25, r21
    1272:	55 0b       	sbc	r21, r21
    1274:	bb 27       	eor	r27, r27
    1276:	aa 27       	eor	r26, r26
    1278:	62 17       	cp	r22, r18
    127a:	73 07       	cpc	r23, r19
    127c:	84 07       	cpc	r24, r20
    127e:	38 f0       	brcs	.+14     	; 0x128e <__divsf3_pse+0x26>
    1280:	9f 5f       	subi	r25, 0xFF	; 255
    1282:	5f 4f       	sbci	r21, 0xFF	; 255
    1284:	22 0f       	add	r18, r18
    1286:	33 1f       	adc	r19, r19
    1288:	44 1f       	adc	r20, r20
    128a:	aa 1f       	adc	r26, r26
    128c:	a9 f3       	breq	.-22     	; 0x1278 <__divsf3_pse+0x10>
    128e:	35 d0       	rcall	.+106    	; 0x12fa <__divsf3_pse+0x92>
    1290:	0e 2e       	mov	r0, r30
    1292:	3a f0       	brmi	.+14     	; 0x12a2 <__divsf3_pse+0x3a>
    1294:	e0 e8       	ldi	r30, 0x80	; 128
    1296:	32 d0       	rcall	.+100    	; 0x12fc <__divsf3_pse+0x94>
    1298:	91 50       	subi	r25, 0x01	; 1
    129a:	50 40       	sbci	r21, 0x00	; 0
    129c:	e6 95       	lsr	r30
    129e:	00 1c       	adc	r0, r0
    12a0:	ca f7       	brpl	.-14     	; 0x1294 <__divsf3_pse+0x2c>
    12a2:	2b d0       	rcall	.+86     	; 0x12fa <__divsf3_pse+0x92>
    12a4:	fe 2f       	mov	r31, r30
    12a6:	29 d0       	rcall	.+82     	; 0x12fa <__divsf3_pse+0x92>
    12a8:	66 0f       	add	r22, r22
    12aa:	77 1f       	adc	r23, r23
    12ac:	88 1f       	adc	r24, r24
    12ae:	bb 1f       	adc	r27, r27
    12b0:	26 17       	cp	r18, r22
    12b2:	37 07       	cpc	r19, r23
    12b4:	48 07       	cpc	r20, r24
    12b6:	ab 07       	cpc	r26, r27
    12b8:	b0 e8       	ldi	r27, 0x80	; 128
    12ba:	09 f0       	breq	.+2      	; 0x12be <__divsf3_pse+0x56>
    12bc:	bb 0b       	sbc	r27, r27
    12be:	80 2d       	mov	r24, r0
    12c0:	bf 01       	movw	r22, r30
    12c2:	ff 27       	eor	r31, r31
    12c4:	93 58       	subi	r25, 0x83	; 131
    12c6:	5f 4f       	sbci	r21, 0xFF	; 255
    12c8:	3a f0       	brmi	.+14     	; 0x12d8 <__divsf3_pse+0x70>
    12ca:	9e 3f       	cpi	r25, 0xFE	; 254
    12cc:	51 05       	cpc	r21, r1
    12ce:	78 f0       	brcs	.+30     	; 0x12ee <__divsf3_pse+0x86>
    12d0:	0c 94 1f 0a 	jmp	0x143e	; 0x143e <__fp_inf>
    12d4:	0c 94 6a 0a 	jmp	0x14d4	; 0x14d4 <__fp_szero>
    12d8:	5f 3f       	cpi	r21, 0xFF	; 255
    12da:	e4 f3       	brlt	.-8      	; 0x12d4 <__divsf3_pse+0x6c>
    12dc:	98 3e       	cpi	r25, 0xE8	; 232
    12de:	d4 f3       	brlt	.-12     	; 0x12d4 <__divsf3_pse+0x6c>
    12e0:	86 95       	lsr	r24
    12e2:	77 95       	ror	r23
    12e4:	67 95       	ror	r22
    12e6:	b7 95       	ror	r27
    12e8:	f7 95       	ror	r31
    12ea:	9f 5f       	subi	r25, 0xFF	; 255
    12ec:	c9 f7       	brne	.-14     	; 0x12e0 <__divsf3_pse+0x78>
    12ee:	88 0f       	add	r24, r24
    12f0:	91 1d       	adc	r25, r1
    12f2:	96 95       	lsr	r25
    12f4:	87 95       	ror	r24
    12f6:	97 f9       	bld	r25, 7
    12f8:	08 95       	ret
    12fa:	e1 e0       	ldi	r30, 0x01	; 1
    12fc:	66 0f       	add	r22, r22
    12fe:	77 1f       	adc	r23, r23
    1300:	88 1f       	adc	r24, r24
    1302:	bb 1f       	adc	r27, r27
    1304:	62 17       	cp	r22, r18
    1306:	73 07       	cpc	r23, r19
    1308:	84 07       	cpc	r24, r20
    130a:	ba 07       	cpc	r27, r26
    130c:	20 f0       	brcs	.+8      	; 0x1316 <__divsf3_pse+0xae>
    130e:	62 1b       	sub	r22, r18
    1310:	73 0b       	sbc	r23, r19
    1312:	84 0b       	sbc	r24, r20
    1314:	ba 0b       	sbc	r27, r26
    1316:	ee 1f       	adc	r30, r30
    1318:	88 f7       	brcc	.-30     	; 0x12fc <__divsf3_pse+0x94>
    131a:	e0 95       	com	r30
    131c:	08 95       	ret

0000131e <__fixunssfsi>:
    131e:	0e 94 4f 0a 	call	0x149e	; 0x149e <__fp_splitA>
    1322:	88 f0       	brcs	.+34     	; 0x1346 <__fixunssfsi+0x28>
    1324:	9f 57       	subi	r25, 0x7F	; 127
    1326:	98 f0       	brcs	.+38     	; 0x134e <__fixunssfsi+0x30>
    1328:	b9 2f       	mov	r27, r25
    132a:	99 27       	eor	r25, r25
    132c:	b7 51       	subi	r27, 0x17	; 23
    132e:	b0 f0       	brcs	.+44     	; 0x135c <__fixunssfsi+0x3e>
    1330:	e1 f0       	breq	.+56     	; 0x136a <__fixunssfsi+0x4c>
    1332:	66 0f       	add	r22, r22
    1334:	77 1f       	adc	r23, r23
    1336:	88 1f       	adc	r24, r24
    1338:	99 1f       	adc	r25, r25
    133a:	1a f0       	brmi	.+6      	; 0x1342 <__fixunssfsi+0x24>
    133c:	ba 95       	dec	r27
    133e:	c9 f7       	brne	.-14     	; 0x1332 <__fixunssfsi+0x14>
    1340:	14 c0       	rjmp	.+40     	; 0x136a <__fixunssfsi+0x4c>
    1342:	b1 30       	cpi	r27, 0x01	; 1
    1344:	91 f0       	breq	.+36     	; 0x136a <__fixunssfsi+0x4c>
    1346:	0e 94 69 0a 	call	0x14d2	; 0x14d2 <__fp_zero>
    134a:	b1 e0       	ldi	r27, 0x01	; 1
    134c:	08 95       	ret
    134e:	0c 94 69 0a 	jmp	0x14d2	; 0x14d2 <__fp_zero>
    1352:	67 2f       	mov	r22, r23
    1354:	78 2f       	mov	r23, r24
    1356:	88 27       	eor	r24, r24
    1358:	b8 5f       	subi	r27, 0xF8	; 248
    135a:	39 f0       	breq	.+14     	; 0x136a <__fixunssfsi+0x4c>
    135c:	b9 3f       	cpi	r27, 0xF9	; 249
    135e:	cc f3       	brlt	.-14     	; 0x1352 <__fixunssfsi+0x34>
    1360:	86 95       	lsr	r24
    1362:	77 95       	ror	r23
    1364:	67 95       	ror	r22
    1366:	b3 95       	inc	r27
    1368:	d9 f7       	brne	.-10     	; 0x1360 <__fixunssfsi+0x42>
    136a:	3e f4       	brtc	.+14     	; 0x137a <__fixunssfsi+0x5c>
    136c:	90 95       	com	r25
    136e:	80 95       	com	r24
    1370:	70 95       	com	r23
    1372:	61 95       	neg	r22
    1374:	7f 4f       	sbci	r23, 0xFF	; 255
    1376:	8f 4f       	sbci	r24, 0xFF	; 255
    1378:	9f 4f       	sbci	r25, 0xFF	; 255
    137a:	08 95       	ret

0000137c <__floatunsisf>:
    137c:	e8 94       	clt
    137e:	09 c0       	rjmp	.+18     	; 0x1392 <__floatsisf+0x12>

00001380 <__floatsisf>:
    1380:	97 fb       	bst	r25, 7
    1382:	3e f4       	brtc	.+14     	; 0x1392 <__floatsisf+0x12>
    1384:	90 95       	com	r25
    1386:	80 95       	com	r24
    1388:	70 95       	com	r23
    138a:	61 95       	neg	r22
    138c:	7f 4f       	sbci	r23, 0xFF	; 255
    138e:	8f 4f       	sbci	r24, 0xFF	; 255
    1390:	9f 4f       	sbci	r25, 0xFF	; 255
    1392:	99 23       	and	r25, r25
    1394:	a9 f0       	breq	.+42     	; 0x13c0 <__floatsisf+0x40>
    1396:	f9 2f       	mov	r31, r25
    1398:	96 e9       	ldi	r25, 0x96	; 150
    139a:	bb 27       	eor	r27, r27
    139c:	93 95       	inc	r25
    139e:	f6 95       	lsr	r31
    13a0:	87 95       	ror	r24
    13a2:	77 95       	ror	r23
    13a4:	67 95       	ror	r22
    13a6:	b7 95       	ror	r27
    13a8:	f1 11       	cpse	r31, r1
    13aa:	f8 cf       	rjmp	.-16     	; 0x139c <__floatsisf+0x1c>
    13ac:	fa f4       	brpl	.+62     	; 0x13ec <__floatsisf+0x6c>
    13ae:	bb 0f       	add	r27, r27
    13b0:	11 f4       	brne	.+4      	; 0x13b6 <__floatsisf+0x36>
    13b2:	60 ff       	sbrs	r22, 0
    13b4:	1b c0       	rjmp	.+54     	; 0x13ec <__floatsisf+0x6c>
    13b6:	6f 5f       	subi	r22, 0xFF	; 255
    13b8:	7f 4f       	sbci	r23, 0xFF	; 255
    13ba:	8f 4f       	sbci	r24, 0xFF	; 255
    13bc:	9f 4f       	sbci	r25, 0xFF	; 255
    13be:	16 c0       	rjmp	.+44     	; 0x13ec <__floatsisf+0x6c>
    13c0:	88 23       	and	r24, r24
    13c2:	11 f0       	breq	.+4      	; 0x13c8 <__floatsisf+0x48>
    13c4:	96 e9       	ldi	r25, 0x96	; 150
    13c6:	11 c0       	rjmp	.+34     	; 0x13ea <__floatsisf+0x6a>
    13c8:	77 23       	and	r23, r23
    13ca:	21 f0       	breq	.+8      	; 0x13d4 <__floatsisf+0x54>
    13cc:	9e e8       	ldi	r25, 0x8E	; 142
    13ce:	87 2f       	mov	r24, r23
    13d0:	76 2f       	mov	r23, r22
    13d2:	05 c0       	rjmp	.+10     	; 0x13de <__floatsisf+0x5e>
    13d4:	66 23       	and	r22, r22
    13d6:	71 f0       	breq	.+28     	; 0x13f4 <__floatsisf+0x74>
    13d8:	96 e8       	ldi	r25, 0x86	; 134
    13da:	86 2f       	mov	r24, r22
    13dc:	70 e0       	ldi	r23, 0x00	; 0
    13de:	60 e0       	ldi	r22, 0x00	; 0
    13e0:	2a f0       	brmi	.+10     	; 0x13ec <__floatsisf+0x6c>
    13e2:	9a 95       	dec	r25
    13e4:	66 0f       	add	r22, r22
    13e6:	77 1f       	adc	r23, r23
    13e8:	88 1f       	adc	r24, r24
    13ea:	da f7       	brpl	.-10     	; 0x13e2 <__floatsisf+0x62>
    13ec:	88 0f       	add	r24, r24
    13ee:	96 95       	lsr	r25
    13f0:	87 95       	ror	r24
    13f2:	97 f9       	bld	r25, 7
    13f4:	08 95       	ret

000013f6 <__fp_cmp>:
    13f6:	99 0f       	add	r25, r25
    13f8:	00 08       	sbc	r0, r0
    13fa:	55 0f       	add	r21, r21
    13fc:	aa 0b       	sbc	r26, r26
    13fe:	e0 e8       	ldi	r30, 0x80	; 128
    1400:	fe ef       	ldi	r31, 0xFE	; 254
    1402:	16 16       	cp	r1, r22
    1404:	17 06       	cpc	r1, r23
    1406:	e8 07       	cpc	r30, r24
    1408:	f9 07       	cpc	r31, r25
    140a:	c0 f0       	brcs	.+48     	; 0x143c <__fp_cmp+0x46>
    140c:	12 16       	cp	r1, r18
    140e:	13 06       	cpc	r1, r19
    1410:	e4 07       	cpc	r30, r20
    1412:	f5 07       	cpc	r31, r21
    1414:	98 f0       	brcs	.+38     	; 0x143c <__fp_cmp+0x46>
    1416:	62 1b       	sub	r22, r18
    1418:	73 0b       	sbc	r23, r19
    141a:	84 0b       	sbc	r24, r20
    141c:	95 0b       	sbc	r25, r21
    141e:	39 f4       	brne	.+14     	; 0x142e <__fp_cmp+0x38>
    1420:	0a 26       	eor	r0, r26
    1422:	61 f0       	breq	.+24     	; 0x143c <__fp_cmp+0x46>
    1424:	23 2b       	or	r18, r19
    1426:	24 2b       	or	r18, r20
    1428:	25 2b       	or	r18, r21
    142a:	21 f4       	brne	.+8      	; 0x1434 <__fp_cmp+0x3e>
    142c:	08 95       	ret
    142e:	0a 26       	eor	r0, r26
    1430:	09 f4       	brne	.+2      	; 0x1434 <__fp_cmp+0x3e>
    1432:	a1 40       	sbci	r26, 0x01	; 1
    1434:	a6 95       	lsr	r26
    1436:	8f ef       	ldi	r24, 0xFF	; 255
    1438:	81 1d       	adc	r24, r1
    143a:	81 1d       	adc	r24, r1
    143c:	08 95       	ret

0000143e <__fp_inf>:
    143e:	97 f9       	bld	r25, 7
    1440:	9f 67       	ori	r25, 0x7F	; 127
    1442:	80 e8       	ldi	r24, 0x80	; 128
    1444:	70 e0       	ldi	r23, 0x00	; 0
    1446:	60 e0       	ldi	r22, 0x00	; 0
    1448:	08 95       	ret

0000144a <__fp_nan>:
    144a:	9f ef       	ldi	r25, 0xFF	; 255
    144c:	80 ec       	ldi	r24, 0xC0	; 192
    144e:	08 95       	ret

00001450 <__fp_pscA>:
    1450:	00 24       	eor	r0, r0
    1452:	0a 94       	dec	r0
    1454:	16 16       	cp	r1, r22
    1456:	17 06       	cpc	r1, r23
    1458:	18 06       	cpc	r1, r24
    145a:	09 06       	cpc	r0, r25
    145c:	08 95       	ret

0000145e <__fp_pscB>:
    145e:	00 24       	eor	r0, r0
    1460:	0a 94       	dec	r0
    1462:	12 16       	cp	r1, r18
    1464:	13 06       	cpc	r1, r19
    1466:	14 06       	cpc	r1, r20
    1468:	05 06       	cpc	r0, r21
    146a:	08 95       	ret

0000146c <__fp_round>:
    146c:	09 2e       	mov	r0, r25
    146e:	03 94       	inc	r0
    1470:	00 0c       	add	r0, r0
    1472:	11 f4       	brne	.+4      	; 0x1478 <__fp_round+0xc>
    1474:	88 23       	and	r24, r24
    1476:	52 f0       	brmi	.+20     	; 0x148c <__fp_round+0x20>
    1478:	bb 0f       	add	r27, r27
    147a:	40 f4       	brcc	.+16     	; 0x148c <__fp_round+0x20>
    147c:	bf 2b       	or	r27, r31
    147e:	11 f4       	brne	.+4      	; 0x1484 <__fp_round+0x18>
    1480:	60 ff       	sbrs	r22, 0
    1482:	04 c0       	rjmp	.+8      	; 0x148c <__fp_round+0x20>
    1484:	6f 5f       	subi	r22, 0xFF	; 255
    1486:	7f 4f       	sbci	r23, 0xFF	; 255
    1488:	8f 4f       	sbci	r24, 0xFF	; 255
    148a:	9f 4f       	sbci	r25, 0xFF	; 255
    148c:	08 95       	ret

0000148e <__fp_split3>:
    148e:	57 fd       	sbrc	r21, 7
    1490:	90 58       	subi	r25, 0x80	; 128
    1492:	44 0f       	add	r20, r20
    1494:	55 1f       	adc	r21, r21
    1496:	59 f0       	breq	.+22     	; 0x14ae <__fp_splitA+0x10>
    1498:	5f 3f       	cpi	r21, 0xFF	; 255
    149a:	71 f0       	breq	.+28     	; 0x14b8 <__fp_splitA+0x1a>
    149c:	47 95       	ror	r20

0000149e <__fp_splitA>:
    149e:	88 0f       	add	r24, r24
    14a0:	97 fb       	bst	r25, 7
    14a2:	99 1f       	adc	r25, r25
    14a4:	61 f0       	breq	.+24     	; 0x14be <__fp_splitA+0x20>
    14a6:	9f 3f       	cpi	r25, 0xFF	; 255
    14a8:	79 f0       	breq	.+30     	; 0x14c8 <__fp_splitA+0x2a>
    14aa:	87 95       	ror	r24
    14ac:	08 95       	ret
    14ae:	12 16       	cp	r1, r18
    14b0:	13 06       	cpc	r1, r19
    14b2:	14 06       	cpc	r1, r20
    14b4:	55 1f       	adc	r21, r21
    14b6:	f2 cf       	rjmp	.-28     	; 0x149c <__fp_split3+0xe>
    14b8:	46 95       	lsr	r20
    14ba:	f1 df       	rcall	.-30     	; 0x149e <__fp_splitA>
    14bc:	08 c0       	rjmp	.+16     	; 0x14ce <__fp_splitA+0x30>
    14be:	16 16       	cp	r1, r22
    14c0:	17 06       	cpc	r1, r23
    14c2:	18 06       	cpc	r1, r24
    14c4:	99 1f       	adc	r25, r25
    14c6:	f1 cf       	rjmp	.-30     	; 0x14aa <__fp_splitA+0xc>
    14c8:	86 95       	lsr	r24
    14ca:	71 05       	cpc	r23, r1
    14cc:	61 05       	cpc	r22, r1
    14ce:	08 94       	sec
    14d0:	08 95       	ret

000014d2 <__fp_zero>:
    14d2:	e8 94       	clt

000014d4 <__fp_szero>:
    14d4:	bb 27       	eor	r27, r27
    14d6:	66 27       	eor	r22, r22
    14d8:	77 27       	eor	r23, r23
    14da:	cb 01       	movw	r24, r22
    14dc:	97 f9       	bld	r25, 7
    14de:	08 95       	ret

000014e0 <__gesf2>:
    14e0:	0e 94 fb 09 	call	0x13f6	; 0x13f6 <__fp_cmp>
    14e4:	08 f4       	brcc	.+2      	; 0x14e8 <__gesf2+0x8>
    14e6:	8f ef       	ldi	r24, 0xFF	; 255
    14e8:	08 95       	ret

000014ea <__mulsf3>:
    14ea:	0e 94 88 0a 	call	0x1510	; 0x1510 <__mulsf3x>
    14ee:	0c 94 36 0a 	jmp	0x146c	; 0x146c <__fp_round>
    14f2:	0e 94 28 0a 	call	0x1450	; 0x1450 <__fp_pscA>
    14f6:	38 f0       	brcs	.+14     	; 0x1506 <__mulsf3+0x1c>
    14f8:	0e 94 2f 0a 	call	0x145e	; 0x145e <__fp_pscB>
    14fc:	20 f0       	brcs	.+8      	; 0x1506 <__mulsf3+0x1c>
    14fe:	95 23       	and	r25, r21
    1500:	11 f0       	breq	.+4      	; 0x1506 <__mulsf3+0x1c>
    1502:	0c 94 1f 0a 	jmp	0x143e	; 0x143e <__fp_inf>
    1506:	0c 94 25 0a 	jmp	0x144a	; 0x144a <__fp_nan>
    150a:	11 24       	eor	r1, r1
    150c:	0c 94 6a 0a 	jmp	0x14d4	; 0x14d4 <__fp_szero>

00001510 <__mulsf3x>:
    1510:	0e 94 47 0a 	call	0x148e	; 0x148e <__fp_split3>
    1514:	70 f3       	brcs	.-36     	; 0x14f2 <__mulsf3+0x8>

00001516 <__mulsf3_pse>:
    1516:	95 9f       	mul	r25, r21
    1518:	c1 f3       	breq	.-16     	; 0x150a <__mulsf3+0x20>
    151a:	95 0f       	add	r25, r21
    151c:	50 e0       	ldi	r21, 0x00	; 0
    151e:	55 1f       	adc	r21, r21
    1520:	62 9f       	mul	r22, r18
    1522:	f0 01       	movw	r30, r0
    1524:	72 9f       	mul	r23, r18
    1526:	bb 27       	eor	r27, r27
    1528:	f0 0d       	add	r31, r0
    152a:	b1 1d       	adc	r27, r1
    152c:	63 9f       	mul	r22, r19
    152e:	aa 27       	eor	r26, r26
    1530:	f0 0d       	add	r31, r0
    1532:	b1 1d       	adc	r27, r1
    1534:	aa 1f       	adc	r26, r26
    1536:	64 9f       	mul	r22, r20
    1538:	66 27       	eor	r22, r22
    153a:	b0 0d       	add	r27, r0
    153c:	a1 1d       	adc	r26, r1
    153e:	66 1f       	adc	r22, r22
    1540:	82 9f       	mul	r24, r18
    1542:	22 27       	eor	r18, r18
    1544:	b0 0d       	add	r27, r0
    1546:	a1 1d       	adc	r26, r1
    1548:	62 1f       	adc	r22, r18
    154a:	73 9f       	mul	r23, r19
    154c:	b0 0d       	add	r27, r0
    154e:	a1 1d       	adc	r26, r1
    1550:	62 1f       	adc	r22, r18
    1552:	83 9f       	mul	r24, r19
    1554:	a0 0d       	add	r26, r0
    1556:	61 1d       	adc	r22, r1
    1558:	22 1f       	adc	r18, r18
    155a:	74 9f       	mul	r23, r20
    155c:	33 27       	eor	r19, r19
    155e:	a0 0d       	add	r26, r0
    1560:	61 1d       	adc	r22, r1
    1562:	23 1f       	adc	r18, r19
    1564:	84 9f       	mul	r24, r20
    1566:	60 0d       	add	r22, r0
    1568:	21 1d       	adc	r18, r1
    156a:	82 2f       	mov	r24, r18
    156c:	76 2f       	mov	r23, r22
    156e:	6a 2f       	mov	r22, r26
    1570:	11 24       	eor	r1, r1
    1572:	9f 57       	subi	r25, 0x7F	; 127
    1574:	50 40       	sbci	r21, 0x00	; 0
    1576:	9a f0       	brmi	.+38     	; 0x159e <__mulsf3_pse+0x88>
    1578:	f1 f0       	breq	.+60     	; 0x15b6 <__mulsf3_pse+0xa0>
    157a:	88 23       	and	r24, r24
    157c:	4a f0       	brmi	.+18     	; 0x1590 <__mulsf3_pse+0x7a>
    157e:	ee 0f       	add	r30, r30
    1580:	ff 1f       	adc	r31, r31
    1582:	bb 1f       	adc	r27, r27
    1584:	66 1f       	adc	r22, r22
    1586:	77 1f       	adc	r23, r23
    1588:	88 1f       	adc	r24, r24
    158a:	91 50       	subi	r25, 0x01	; 1
    158c:	50 40       	sbci	r21, 0x00	; 0
    158e:	a9 f7       	brne	.-22     	; 0x157a <__mulsf3_pse+0x64>
    1590:	9e 3f       	cpi	r25, 0xFE	; 254
    1592:	51 05       	cpc	r21, r1
    1594:	80 f0       	brcs	.+32     	; 0x15b6 <__mulsf3_pse+0xa0>
    1596:	0c 94 1f 0a 	jmp	0x143e	; 0x143e <__fp_inf>
    159a:	0c 94 6a 0a 	jmp	0x14d4	; 0x14d4 <__fp_szero>
    159e:	5f 3f       	cpi	r21, 0xFF	; 255
    15a0:	e4 f3       	brlt	.-8      	; 0x159a <__mulsf3_pse+0x84>
    15a2:	98 3e       	cpi	r25, 0xE8	; 232
    15a4:	d4 f3       	brlt	.-12     	; 0x159a <__mulsf3_pse+0x84>
    15a6:	86 95       	lsr	r24
    15a8:	77 95       	ror	r23
    15aa:	67 95       	ror	r22
    15ac:	b7 95       	ror	r27
    15ae:	f7 95       	ror	r31
    15b0:	e7 95       	ror	r30
    15b2:	9f 5f       	subi	r25, 0xFF	; 255
    15b4:	c1 f7       	brne	.-16     	; 0x15a6 <__mulsf3_pse+0x90>
    15b6:	fe 2b       	or	r31, r30
    15b8:	88 0f       	add	r24, r24
    15ba:	91 1d       	adc	r25, r1
    15bc:	96 95       	lsr	r25
    15be:	87 95       	ror	r24
    15c0:	97 f9       	bld	r25, 7
    15c2:	08 95       	ret

000015c4 <do_rand>:
    15c4:	cf 92       	push	r12
    15c6:	df 92       	push	r13
    15c8:	ef 92       	push	r14
    15ca:	ff 92       	push	r15
    15cc:	cf 93       	push	r28
    15ce:	df 93       	push	r29
    15d0:	cd b7       	in	r28, 0x3d	; 61
    15d2:	de b7       	in	r29, 0x3e	; 62
    15d4:	2a 97       	sbiw	r28, 0x0a	; 10
    15d6:	0f b6       	in	r0, 0x3f	; 63
    15d8:	f8 94       	cli
    15da:	de bf       	out	0x3e, r29	; 62
    15dc:	0f be       	out	0x3f, r0	; 63
    15de:	cd bf       	out	0x3d, r28	; 61
    15e0:	89 87       	std	Y+9, r24	; 0x09
    15e2:	9a 87       	std	Y+10, r25	; 0x0a
    15e4:	a9 85       	ldd	r26, Y+9	; 0x09
    15e6:	ba 85       	ldd	r27, Y+10	; 0x0a
    15e8:	2d 91       	ld	r18, X+
    15ea:	3d 91       	ld	r19, X+
    15ec:	4d 91       	ld	r20, X+
    15ee:	5c 91       	ld	r21, X
    15f0:	29 83       	std	Y+1, r18	; 0x01
    15f2:	3a 83       	std	Y+2, r19	; 0x02
    15f4:	4b 83       	std	Y+3, r20	; 0x03
    15f6:	5c 83       	std	Y+4, r21	; 0x04
    15f8:	23 2b       	or	r18, r19
    15fa:	24 2b       	or	r18, r20
    15fc:	25 2b       	or	r18, r21
    15fe:	41 f4       	brne	.+16     	; 0x1610 <do_rand+0x4c>
    1600:	24 e2       	ldi	r18, 0x24	; 36
    1602:	39 ed       	ldi	r19, 0xD9	; 217
    1604:	4b e5       	ldi	r20, 0x5B	; 91
    1606:	57 e0       	ldi	r21, 0x07	; 7
    1608:	29 83       	std	Y+1, r18	; 0x01
    160a:	3a 83       	std	Y+2, r19	; 0x02
    160c:	4b 83       	std	Y+3, r20	; 0x03
    160e:	5c 83       	std	Y+4, r21	; 0x04
    1610:	69 81       	ldd	r22, Y+1	; 0x01
    1612:	7a 81       	ldd	r23, Y+2	; 0x02
    1614:	8b 81       	ldd	r24, Y+3	; 0x03
    1616:	9c 81       	ldd	r25, Y+4	; 0x04
    1618:	2d e1       	ldi	r18, 0x1D	; 29
    161a:	33 ef       	ldi	r19, 0xF3	; 243
    161c:	41 e0       	ldi	r20, 0x01	; 1
    161e:	50 e0       	ldi	r21, 0x00	; 0
    1620:	0e 94 56 08 	call	0x10ac	; 0x10ac <__divmodsi4>
    1624:	69 01       	movw	r12, r18
    1626:	7a 01       	movw	r14, r20
    1628:	a7 ea       	ldi	r26, 0xA7	; 167
    162a:	b1 e4       	ldi	r27, 0x41	; 65
    162c:	9b 01       	movw	r18, r22
    162e:	ac 01       	movw	r20, r24
    1630:	0e 94 63 0b 	call	0x16c6	; 0x16c6 <__muluhisi3>
    1634:	69 83       	std	Y+1, r22	; 0x01
    1636:	7a 83       	std	Y+2, r23	; 0x02
    1638:	8b 83       	std	Y+3, r24	; 0x03
    163a:	9c 83       	std	Y+4, r25	; 0x04
    163c:	ac ee       	ldi	r26, 0xEC	; 236
    163e:	b4 ef       	ldi	r27, 0xF4	; 244
    1640:	a7 01       	movw	r20, r14
    1642:	96 01       	movw	r18, r12
    1644:	0e 94 71 0b 	call	0x16e2	; 0x16e2 <__mulohisi3>
    1648:	9b 01       	movw	r18, r22
    164a:	ac 01       	movw	r20, r24
    164c:	89 81       	ldd	r24, Y+1	; 0x01
    164e:	9a 81       	ldd	r25, Y+2	; 0x02
    1650:	ab 81       	ldd	r26, Y+3	; 0x03
    1652:	bc 81       	ldd	r27, Y+4	; 0x04
    1654:	82 0f       	add	r24, r18
    1656:	93 1f       	adc	r25, r19
    1658:	a4 1f       	adc	r26, r20
    165a:	b5 1f       	adc	r27, r21
    165c:	b7 ff       	sbrs	r27, 7
    165e:	03 c0       	rjmp	.+6      	; 0x1666 <do_rand+0xa2>
    1660:	01 97       	sbiw	r24, 0x01	; 1
    1662:	a1 09       	sbc	r26, r1
    1664:	b0 48       	sbci	r27, 0x80	; 128
    1666:	e9 85       	ldd	r30, Y+9	; 0x09
    1668:	fa 85       	ldd	r31, Y+10	; 0x0a
    166a:	80 83       	st	Z, r24
    166c:	91 83       	std	Z+1, r25	; 0x01
    166e:	a2 83       	std	Z+2, r26	; 0x02
    1670:	b3 83       	std	Z+3, r27	; 0x03
    1672:	9f 77       	andi	r25, 0x7F	; 127
    1674:	2a 96       	adiw	r28, 0x0a	; 10
    1676:	0f b6       	in	r0, 0x3f	; 63
    1678:	f8 94       	cli
    167a:	de bf       	out	0x3e, r29	; 62
    167c:	0f be       	out	0x3f, r0	; 63
    167e:	cd bf       	out	0x3d, r28	; 61
    1680:	df 91       	pop	r29
    1682:	cf 91       	pop	r28
    1684:	ff 90       	pop	r15
    1686:	ef 90       	pop	r14
    1688:	df 90       	pop	r13
    168a:	cf 90       	pop	r12
    168c:	08 95       	ret

0000168e <rand_r>:
    168e:	0e 94 e2 0a 	call	0x15c4	; 0x15c4 <do_rand>
    1692:	08 95       	ret

00001694 <rand>:
    1694:	8a e0       	ldi	r24, 0x0A	; 10
    1696:	91 e0       	ldi	r25, 0x01	; 1
    1698:	0e 94 e2 0a 	call	0x15c4	; 0x15c4 <do_rand>
    169c:	08 95       	ret

0000169e <srand>:
    169e:	b0 e0       	ldi	r27, 0x00	; 0
    16a0:	a0 e0       	ldi	r26, 0x00	; 0
    16a2:	80 93 0a 01 	sts	0x010A, r24	; 0x80010a <next>
    16a6:	90 93 0b 01 	sts	0x010B, r25	; 0x80010b <next+0x1>
    16aa:	a0 93 0c 01 	sts	0x010C, r26	; 0x80010c <next+0x2>
    16ae:	b0 93 0d 01 	sts	0x010D, r27	; 0x80010d <next+0x3>
    16b2:	08 95       	ret

000016b4 <memcpy_P>:
    16b4:	fb 01       	movw	r30, r22
    16b6:	dc 01       	movw	r26, r24
    16b8:	02 c0       	rjmp	.+4      	; 0x16be <memcpy_P+0xa>
    16ba:	05 90       	lpm	r0, Z+
    16bc:	0d 92       	st	X+, r0
    16be:	41 50       	subi	r20, 0x01	; 1
    16c0:	50 40       	sbci	r21, 0x00	; 0
    16c2:	d8 f7       	brcc	.-10     	; 0x16ba <memcpy_P+0x6>
    16c4:	08 95       	ret

000016c6 <__muluhisi3>:
    16c6:	0e 94 ad 0b 	call	0x175a	; 0x175a <__umulhisi3>
    16ca:	a5 9f       	mul	r26, r21
    16cc:	90 0d       	add	r25, r0
    16ce:	b4 9f       	mul	r27, r20
    16d0:	90 0d       	add	r25, r0
    16d2:	a4 9f       	mul	r26, r20
    16d4:	80 0d       	add	r24, r0
    16d6:	91 1d       	adc	r25, r1
    16d8:	11 24       	eor	r1, r1
    16da:	08 95       	ret

000016dc <__mulshisi3>:
    16dc:	b7 ff       	sbrs	r27, 7
    16de:	0c 94 63 0b 	jmp	0x16c6	; 0x16c6 <__muluhisi3>

000016e2 <__mulohisi3>:
    16e2:	0e 94 63 0b 	call	0x16c6	; 0x16c6 <__muluhisi3>
    16e6:	82 1b       	sub	r24, r18
    16e8:	93 0b       	sbc	r25, r19
    16ea:	08 95       	ret

000016ec <__prologue_saves__>:
    16ec:	2f 92       	push	r2
    16ee:	3f 92       	push	r3
    16f0:	4f 92       	push	r4
    16f2:	5f 92       	push	r5
    16f4:	6f 92       	push	r6
    16f6:	7f 92       	push	r7
    16f8:	8f 92       	push	r8
    16fa:	9f 92       	push	r9
    16fc:	af 92       	push	r10
    16fe:	bf 92       	push	r11
    1700:	cf 92       	push	r12
    1702:	df 92       	push	r13
    1704:	ef 92       	push	r14
    1706:	ff 92       	push	r15
    1708:	0f 93       	push	r16
    170a:	1f 93       	push	r17
    170c:	cf 93       	push	r28
    170e:	df 93       	push	r29
    1710:	cd b7       	in	r28, 0x3d	; 61
    1712:	de b7       	in	r29, 0x3e	; 62
    1714:	ca 1b       	sub	r28, r26
    1716:	db 0b       	sbc	r29, r27
    1718:	0f b6       	in	r0, 0x3f	; 63
    171a:	f8 94       	cli
    171c:	de bf       	out	0x3e, r29	; 62
    171e:	0f be       	out	0x3f, r0	; 63
    1720:	cd bf       	out	0x3d, r28	; 61
    1722:	09 94       	ijmp

00001724 <__epilogue_restores__>:
    1724:	2a 88       	ldd	r2, Y+18	; 0x12
    1726:	39 88       	ldd	r3, Y+17	; 0x11
    1728:	48 88       	ldd	r4, Y+16	; 0x10
    172a:	5f 84       	ldd	r5, Y+15	; 0x0f
    172c:	6e 84       	ldd	r6, Y+14	; 0x0e
    172e:	7d 84       	ldd	r7, Y+13	; 0x0d
    1730:	8c 84       	ldd	r8, Y+12	; 0x0c
    1732:	9b 84       	ldd	r9, Y+11	; 0x0b
    1734:	aa 84       	ldd	r10, Y+10	; 0x0a
    1736:	b9 84       	ldd	r11, Y+9	; 0x09
    1738:	c8 84       	ldd	r12, Y+8	; 0x08
    173a:	df 80       	ldd	r13, Y+7	; 0x07
    173c:	ee 80       	ldd	r14, Y+6	; 0x06
    173e:	fd 80       	ldd	r15, Y+5	; 0x05
    1740:	0c 81       	ldd	r16, Y+4	; 0x04
    1742:	1b 81       	ldd	r17, Y+3	; 0x03
    1744:	aa 81       	ldd	r26, Y+2	; 0x02
    1746:	b9 81       	ldd	r27, Y+1	; 0x01
    1748:	ce 0f       	add	r28, r30
    174a:	d1 1d       	adc	r29, r1
    174c:	0f b6       	in	r0, 0x3f	; 63
    174e:	f8 94       	cli
    1750:	de bf       	out	0x3e, r29	; 62
    1752:	0f be       	out	0x3f, r0	; 63
    1754:	cd bf       	out	0x3d, r28	; 61
    1756:	ed 01       	movw	r28, r26
    1758:	08 95       	ret

0000175a <__umulhisi3>:
    175a:	a2 9f       	mul	r26, r18
    175c:	b0 01       	movw	r22, r0
    175e:	b3 9f       	mul	r27, r19
    1760:	c0 01       	movw	r24, r0
    1762:	a3 9f       	mul	r26, r19
    1764:	70 0d       	add	r23, r0
    1766:	81 1d       	adc	r24, r1
    1768:	11 24       	eor	r1, r1
    176a:	91 1d       	adc	r25, r1
    176c:	b2 9f       	mul	r27, r18
    176e:	70 0d       	add	r23, r0
    1770:	81 1d       	adc	r24, r1
    1772:	11 24       	eor	r1, r1
    1774:	91 1d       	adc	r25, r1
    1776:	08 95       	ret

00001778 <_exit>:
    1778:	f8 94       	cli

0000177a <__stop_program>:
    177a:	ff cf       	rjmp	.-2      	; 0x177a <__stop_program>
